(dp0
S'COC(=O)C(N)Cc1cn(C)c2ccccc12.O=C(Cl)c1ccccc1>>COC(=O)C(Cc1cn(C)c2ccccc12)NC(=O)c1ccccc1'
p1
(dp2
S'COC(=O)C(Cc1cn(C)c2ccccc12)NC(=O)c1ccccc1'
p3
I1
sS'COC(=O)C(N)Cc1cn(C)c2ccccc12'
p4
I-1
sS'O=C(Cl)c1ccccc1'
p5
I-1
ssS'N=C(N)N.O=[N+]([O-])c1ccccc1I>>N=C(N)Nc1ccccc1[N+](=O)[O-]'
p6
(dp7
S'N=C(N)N'
p8
I-1
sS'N=C(N)Nc1ccccc1[N+](=O)[O-]'
p9
I1
sS'O=[N+]([O-])c1ccccc1I'
p10
I-1
ssS'NCCCCCN.O=C(Cl)OCc1ccccc1>>NCCCCCNC(=O)OCc1ccccc1'
p11
(dp12
S'O=C(Cl)OCc1ccccc1'
p13
I-1
sS'NCCCCCN'
p14
I-1
sS'NCCCCCNC(=O)OCc1ccccc1'
p15
I1
ssS'COC=Cc1cccnc1>>O=CCc1cccnc1'
p16
(dp17
S'COC=Cc1cccnc1'
p18
I-1
sS'O=CCc1cccnc1'
p19
I1
ssS'CC(C)(C)O.N#CC(=NOC(=O)Cl)c1ccccc1>>CC(C)(C)OC(=O)ON=C(C#N)c1ccccc1'
p20
(dp21
S'CC(C)(C)O'
p22
I-1
sS'CC(C)(C)OC(=O)ON=C(C#N)c1ccccc1'
p23
I1
sS'N#CC(=NOC(=O)Cl)c1ccccc1'
p24
I-1
ssS'CO.Cn1cc(CC(N)C#N)c2ccccc21>>COC(=O)C(N)Cc1cn(C)c2ccccc12'
p25
(dp26
S'COC(=O)C(N)Cc1cn(C)c2ccccc12'
p27
I1
sS'Cn1cc(CC(N)C#N)c2ccccc21'
p28
I-1
sS'CO'
p29
I-1
ssS'C=CCO.CC(C)(C)OC(=O)NCC(=O)O>>C=CCOC(=O)CNC(=O)OC(C)(C)C'
p30
(dp31
S'C=CCO'
p32
I-1
sS'C=CCOC(=O)CNC(=O)OC(C)(C)C'
p33
I1
sS'CC(C)(C)OC(=O)NCC(=O)O'
p34
I-1
ssS'CC(C)(C)OC(=O)NC(Cc1c[nH]c2ccccc12)C(=O)OCc1ccccc1.CI>>Cn1cc(CC(NC(=O)OC(C)(C)C)C(=O)OCc2ccccc2)c2ccccc21'
p35
(dp36
S'CI'
p37
I-1
sS'Cn1cc(CC(NC(=O)OC(C)(C)C)C(=O)OCc2ccccc2)c2ccccc21'
p38
I1
sS'CC(C)(C)OC(=O)NC(Cc1c[nH]c2ccccc12)C(=O)OCc1ccccc1'
p39
I-1
ssS'CN.O=C(Cl)OC(Cl)(Cl)Cl>>CN=C=O'
p40
(dp41
S'O=C(Cl)OC(Cl)(Cl)Cl'
p42
I-1
sS'CN'
p43
I-1
sS'CN=C=O'
p44
I1
ssS'N#CCc1cc2ccccc2[nH]1>>NC(=O)Cc1cc2ccccc2[nH]1'
p45
(dp46
S'N#CCc1cc2ccccc2[nH]1'
p47
I-1
sS'NC(=O)Cc1cc2ccccc2[nH]1'
p48
I1
ssS'CCOC(=O)c1c(C(=O)Cc2cccnc2)[nH]c2ccc(OC(F)(F)F)cc12>>CCOC(=O)c1c(C(O)Cc2cccnc2)[nH]c2ccc(OC(F)(F)F)cc12'
p49
(dp50
S'CCOC(=O)c1c(C(=O)Cc2cccnc2)[nH]c2ccc(OC(F)(F)F)cc12'
p51
I-1
sS'CCOC(=O)c1c(C(O)Cc2cccnc2)[nH]c2ccc(OC(F)(F)F)cc12'
p52
I1
ssS'CN(C)CN(C)C.c1ccc2[nH]ccc2c1>>CN(C)Cc1c[nH]c2ccccc12'
p53
(dp54
S'CN(C)Cc1c[nH]c2ccccc12'
p55
I1
sS'c1ccc2[nH]ccc2c1'
p56
I-1
sS'CN(C)CN(C)C'
p57
I-1
ssS'CCOC(=O)C(Cc1cc2ccccc2[nH]1)(NC=O)C(=O)OCC>>NC(Cc1cc2ccccc2[nH]1)C(=O)O'
p58
(dp59
S'CCOC(=O)C(Cc1cc2ccccc2[nH]1)(NC=O)C(=O)OCC'
p60
I-1
sS'NC(Cc1cc2ccccc2[nH]1)C(=O)O'
p61
I1
ssS'C=CCOC(=O)C(Cc1cn(C)c2ccccc12)N=C(c1ccccc1)c1ccccc1>>C=CCOC(=O)C(N)Cc1cn(C)c2ccccc12'
p62
(dp63
S'C=CCOC(=O)C(N)Cc1cn(C)c2ccccc12'
p64
I1
sS'C=CCOC(=O)C(Cc1cn(C)c2ccccc12)N=C(c1ccccc1)c1ccccc1'
p65
I-1
ssS'CI.O=C(O)c1cc(OC(F)(F)F)ccc1[N+](=O)[O-]>>COC(=O)c1cc(OC(F)(F)F)ccc1[N+](=O)[O-]'
p66
(dp67
S'CI'
p68
I-1
sS'COC(=O)c1cc(OC(F)(F)F)ccc1[N+](=O)[O-]'
p69
I1
sS'O=C(O)c1cc(OC(F)(F)F)ccc1[N+](=O)[O-]'
p70
I-1
ssS'CC(C)(C)OC(=O)Cl.N#CC(=NO)c1ccccc1>>CC(C)(C)OC(=O)ON=C(C#N)c1ccccc1'
p71
(dp72
g23
I1
sS'CC(C)(C)OC(=O)Cl'
p73
I-1
sS'N#CC(=NO)c1ccccc1'
p74
I-1
ssS'O=C1CCC(=O)N1CCc1cc2ccccc2[nH]1>>NCCc1cc2ccccc2[nH]1'
p75
(dp76
S'O=C1CCC(=O)N1CCc1cc2ccccc2[nH]1'
p77
I-1
sS'NCCc1cc2ccccc2[nH]1'
p78
I1
ssS'COC(OC)C(=O)c1cccnc1>>COC(Cc1cccnc1)OC'
p79
(dp80
S'COC(OC)C(=O)c1cccnc1'
p81
I-1
sS'COC(Cc1cccnc1)OC'
p82
I1
ssS'N#CBr.Nc1ccccc1[N+](=O)[O-]>>N#CNc1ccccc1[N+](=O)[O-]'
p83
(dp84
S'N#CBr'
p85
I-1
sS'N#CNc1ccccc1[N+](=O)[O-]'
p86
I1
sS'Nc1ccccc1[N+](=O)[O-]'
p87
I-1
ssS'C#CCCN.CC(C)(C)OC(=O)OC(=O)OC(C)(C)C>>C#CCCNC(=O)OC(C)(C)C'
p88
(dp89
S'C#CCCNC(=O)OC(C)(C)C'
p90
I1
sS'C#CCCN'
p91
I-1
sS'CC(C)(C)OC(=O)OC(=O)OC(C)(C)C'
p92
I-1
ssS'COC(=O)C(Cc1c[nH]c2ccccc12)NC(=O)OC(C)(C)C>>COC(=O)C(Cc1cn(C)c2ccccc12)NC(=O)OC(C)(C)C'
p93
(dp94
S'COC(=O)C(Cc1cn(C)c2ccccc12)NC(=O)OC(C)(C)C'
p95
I1
sS'COC(=O)C(Cc1c[nH]c2ccccc12)NC(=O)OC(C)(C)C'
p96
I-1
ssS'CCOC(=O)Cc1cc2ccccc2[nH]1.N>>NC(=O)Cc1cc2ccccc2[nH]1'
p97
(dp98
S'N'
p99
I-1
sg48
I1
sS'CCOC(=O)Cc1cc2ccccc2[nH]1'
p100
I-1
ssS'CC(=O)OC(Cc1ccc(Cl)nc1)c1cc2cc(OC(F)(F)F)ccc2[nH]1>>CC(=O)OC(Cc1cccnc1)c1cc2cc(OC(F)(F)F)ccc2[nH]1'
p101
(dp102
S'CC(=O)OC(Cc1cccnc1)c1cc2cc(OC(F)(F)F)ccc2[nH]1'
p103
I1
sS'CC(=O)OC(Cc1ccc(Cl)nc1)c1cc2cc(OC(F)(F)F)ccc2[nH]1'
p104
I-1
ssS'Cn1cc(CC(N)C(N)=O)c2ccccc21>>Cn1cc(CC(N)C(=O)O)c2ccccc21'
p105
(dp106
S'Cn1cc(CC(N)C(N)=O)c2ccccc21'
p107
I-1
sS'Cn1cc(CC(N)C(=O)O)c2ccccc21'
p108
I1
ssS'CC(C)(C)OC(=O)N[C@@H](Cc1cc2ccccc2[nH]1)C(=O)OCc1ccccc1>>CC(C)(C)OC(=O)N[C@@H](Cc1cc2ccccc2[nH]1)C(=O)O'
p109
(dp110
S'CC(C)(C)OC(=O)N[C@@H](Cc1cc2ccccc2[nH]1)C(=O)OCc1ccccc1'
p111
I-1
sS'CC(C)(C)OC(=O)N[C@@H](Cc1cc2ccccc2[nH]1)C(=O)O'
p112
I1
ssS'C#CCC(NC(=O)OCc1ccccc1)C(=O)OCC.Nc1ccccc1I>>CCOC(=O)C(CC#Cc1ccccc1N)NC(=O)OCc1ccccc1'
p113
(dp114
S'C#CCC(NC(=O)OCc1ccccc1)C(=O)OCC'
p115
I-1
sS'Nc1ccccc1I'
p116
I-1
sS'CCOC(=O)C(CC#Cc1ccccc1N)NC(=O)OCc1ccccc1'
p117
I1
ssS'COC(=O)C(Cc1cn(C)c2ccccc12)N(C(=O)OC(C)(C)C)C(C=O)c1ccccc1>>Cn1cc(CC(C(=O)O)N(C(=O)OC(C)(C)C)C(C=O)c2ccccc2)c2ccccc21'
p118
(dp119
S'COC(=O)C(Cc1cn(C)c2ccccc12)N(C(=O)OC(C)(C)C)C(C=O)c1ccccc1'
p120
I-1
sS'Cn1cc(CC(C(=O)O)N(C(=O)OC(C)(C)C)C(C=O)c2ccccc2)c2ccccc21'
p121
I1
ssS'CC(C)(C)OC(=O)n1cc(CC2NC(=O)NC2=O)c2ccccc21.CI>>CN1C(=O)NC(Cc2cn(C(=O)OC(C)(C)C)c3ccccc23)C1=O'
p122
(dp123
S'CI'
p124
I-1
sS'CC(C)(C)OC(=O)n1cc(CC2NC(=O)NC2=O)c2ccccc21'
p125
I-1
sS'CN1C(=O)NC(Cc2cn(C(=O)OC(C)(C)C)c3ccccc23)C1=O'
p126
I1
ssS'CC(=O)Cl.Cc1ccc(S(=O)(=O)n2c(C(O)Cc3cccnc3)cc3cc(OC(F)(F)F)ccc32)cc1>>CC(=O)OC(Cc1cccnc1)c1cc2cc(OC(F)(F)F)ccc2n1S(=O)(=O)c1ccc(C)cc1'
p127
(dp128
S'CC(=O)OC(Cc1cccnc1)c1cc2cc(OC(F)(F)F)ccc2n1S(=O)(=O)c1ccc(C)cc1'
p129
I1
sS'CC(=O)Cl'
p130
I-1
sS'Cc1ccc(S(=O)(=O)n2c(C(O)Cc3cccnc3)cc3cc(OC(F)(F)F)ccc32)cc1'
p131
I-1
ssS'CC(=O)OC(C(=O)c1cccnc1)c1cc2cc(OC(F)(F)F)ccc2[nH]1>>O=C(c1cccnc1)C(O)c1cc2cc(OC(F)(F)F)ccc2[nH]1'
p132
(dp133
S'CC(=O)OC(C(=O)c1cccnc1)c1cc2cc(OC(F)(F)F)ccc2[nH]1'
p134
I-1
sS'O=C(c1cccnc1)C(O)c1cc2cc(OC(F)(F)F)ccc2[nH]1'
p135
I1
ssS'CC(C)(C)OC(=O)NCCCCCNC(=O)C(F)(F)F>>NCCCCCNC(=O)C(F)(F)F'
p136
(dp137
S'NCCCCCNC(=O)C(F)(F)F'
p138
I1
sS'CC(C)(C)OC(=O)NCCCCCNC(=O)C(F)(F)F'
p139
I-1
ssS'CC(=O)NC(Cc1cc2ccccc2[nH]1)C(=O)O>>NC(Cc1cc2ccccc2[nH]1)C(=O)O'
p140
(dp141
S'CC(=O)NC(Cc1cc2ccccc2[nH]1)C(=O)O'
p142
I-1
sg61
I1
ssS'O=C(Cl)c1ccc([N+](=O)[O-])cc1.OC(c1cccnc1)C(O)c1cc2cc(OC(F)(F)F)ccc2[nH]1>>O=C(OC(c1cc2cc(OC(F)(F)F)ccc2[nH]1)C(O)c1cccnc1)c1ccc([N+](=O)[O-])cc1'
p143
(dp144
S'O=C(Cl)c1ccc([N+](=O)[O-])cc1'
p145
I-1
sS'O=C(OC(c1cc2cc(OC(F)(F)F)ccc2[nH]1)C(O)c1cccnc1)c1ccc([N+](=O)[O-])cc1'
p146
I1
sS'OC(c1cccnc1)C(O)c1cc2cc(OC(F)(F)F)ccc2[nH]1'
p147
I-1
ssS'Brc1cccnc1.C=COC>>CO/C=C/c1cccnc1'
p148
(dp149
S'C=COC'
p150
I-1
sS'CO/C=C/c1cccnc1'
p151
I1
sS'Brc1cccnc1'
p152
I-1
ssS'COC(=O)Cl.N[C@@H](Cc1cc2ccccc2[nH]1)C(=O)OCc1ccccc1>>COC(=O)N[C@@H](Cc1cc2ccccc2[nH]1)C(=O)OCc1ccccc1'
p153
(dp154
S'COC(=O)Cl'
p155
I-1
sS'N[C@@H](Cc1cc2ccccc2[nH]1)C(=O)OCc1ccccc1'
p156
I-1
sS'COC(=O)N[C@@H](Cc1cc2ccccc2[nH]1)C(=O)OCc1ccccc1'
p157
I1
ssS'CC(C)(C)OC(N)=O.Cc1ccccc1Br>>Cc1ccccc1NC(=O)OC(C)(C)C'
p158
(dp159
S'Cc1ccccc1NC(=O)OC(C)(C)C'
p160
I1
sS'Cc1ccccc1Br'
p161
I-1
sS'CC(C)(C)OC(N)=O'
p162
I-1
ssS'CO/C=C/c1cccnc1>>O=CCc1cccnc1'
p163
(dp164
g151
I-1
sg19
I1
ssS'C=CCc1cccnc1>>c1cncc(CC2CO2)c1'
p165
(dp166
S'c1cncc(CC2CO2)c1'
p167
I1
sS'C=CCc1cccnc1'
p168
I-1
ssS'Brc1c[nH]c2ccccc12.COCCl>>COCn1cc(Br)c2ccccc21'
p169
(dp170
S'COCCl'
p171
I-1
sS'COCn1cc(Br)c2ccccc21'
p172
I1
sS'Brc1c[nH]c2ccccc12'
p173
I-1
ssS'Cn1cc(CC(NC(=O)OC(C)(C)C)C(N)=O)c2ccccc21>>Cn1cc(CC(NC(=O)OC(C)(C)C)C(=O)O)c2ccccc21'
p174
(dp175
S'Cn1cc(CC(NC(=O)OC(C)(C)C)C(=O)O)c2ccccc21'
p176
I1
sS'Cn1cc(CC(NC(=O)OC(C)(C)C)C(N)=O)c2ccccc21'
p177
I-1
ssS'C#CC[C@H](NC(=O)OC(C)(C)C)C(=O)OCc1ccccc1.Nc1ccccc1I>>CC(C)(C)OC(=O)N[C@@H](CC#Cc1ccccc1N)C(=O)OCc1ccccc1'
p178
(dp179
S'CC(C)(C)OC(=O)N[C@@H](CC#Cc1ccccc1N)C(=O)OCc1ccccc1'
p180
I1
sS'C#CC[C@H](NC(=O)OC(C)(C)C)C(=O)OCc1ccccc1'
p181
I-1
sS'Nc1ccccc1I'
p182
I-1
ssS'O=C(Cl)Cl.c1c[nH]cn1.c1c[nH]cn1>>O=C(n1ccnc1)n1ccnc1'
p183
(dp184
S'O=C(Cl)Cl'
p185
I-1
sS'O=C(n1ccnc1)n1ccnc1'
p186
I1
sS'c1c[nH]cn1'
p187
I-1
ssS'Cn1cc(CC(NC(=O)OCc2ccccc2)C(=O)OCc2ccccc2)c2ccccc21>>Cn1cc(CC(NC(=O)OCc2ccccc2)C(=O)O)c2ccccc21'
p188
(dp189
S'Cn1cc(CC(NC(=O)OCc2ccccc2)C(=O)O)c2ccccc21'
p190
I1
sS'Cn1cc(CC(NC(=O)OCc2ccccc2)C(=O)OCc2ccccc2)c2ccccc21'
p191
I-1
ssS'CCOC(=O)/C=C/C1Cc2ccccc2N1C(=O)OCc1ccccc1>>CCOC(=O)CCC1Cc2ccccc2N1C(=O)OCc1ccccc1'
p192
(dp193
S'CCOC(=O)CCC1Cc2ccccc2N1C(=O)OCc1ccccc1'
p194
I1
sS'CCOC(=O)/C=C/C1Cc2ccccc2N1C(=O)OCc1ccccc1'
p195
I-1
ssS'C#CCC(N)C(=O)OCC.CC(C)(C)OC(=O)OC(=O)OC(C)(C)C>>C#CCC(NC(=O)OC(C)(C)C)C(=O)OCC'
p196
(dp197
S'C#CCC(NC(=O)OC(C)(C)C)C(=O)OCC'
p198
I1
sS'C#CCC(N)C(=O)OCC'
p199
I-1
sS'CC(C)(C)OC(=O)OC(=O)OC(C)(C)C'
p200
I-1
ssS'O=[N+]([O-])c1ccc(OC(F)(F)F)cc1CO>>O=Cc1cc(OC(F)(F)F)ccc1[N+](=O)[O-]'
p201
(dp202
S'O=[N+]([O-])c1ccc(OC(F)(F)F)cc1CO'
p203
I-1
sS'O=Cc1cc(OC(F)(F)F)ccc1[N+](=O)[O-]'
p204
I1
ssS'Cc1ccc(S(=O)(=O)n2ccc3cc(OC(F)(F)F)ccc32)cc1.O=CCc1cccnc1>>Cc1ccc(S(=O)(=O)n2c(C(O)Cc3cccnc3)cc3cc(OC(F)(F)F)ccc32)cc1'
p205
(dp206
S'Cc1ccc(S(=O)(=O)n2c(C(O)Cc3cccnc3)cc3cc(OC(F)(F)F)ccc32)cc1'
p207
I1
sS'Cc1ccc(S(=O)(=O)n2ccc3cc(OC(F)(F)F)ccc32)cc1'
p208
I-1
sS'O=CCc1cccnc1'
p209
I-1
ssS'COC(=O)[C@H](CC#Cc1ccccc1N)NC(=O)C(F)(F)F>>COC(=O)[C@H](Cc1cc2ccccc2[nH]1)NC(=O)C(F)(F)F'
p210
(dp211
S'COC(=O)[C@H](Cc1cc2ccccc2[nH]1)NC(=O)C(F)(F)F'
p212
I1
sS'COC(=O)[C@H](CC#Cc1ccccc1N)NC(=O)C(F)(F)F'
p213
I-1
ssS'CC(C)(C)OC(=O)NCCCCCO.O=C1NC(=O)c2ccccc21>>CC(C)(C)OC(=O)NCCCCCN1C(=O)c2ccccc2C1=O'
p214
(dp215
S'CC(C)(C)OC(=O)NCCCCCO'
p216
I-1
sS'CC(C)(C)OC(=O)NCCCCCN1C(=O)c2ccccc2C1=O'
p217
I1
sS'O=C1NC(=O)c2ccccc21'
p218
I-1
ssS'CCOC(=O)c1c(C(=O)Cc2cccnc2)[nH]c2ccc(OC(F)(F)F)cc12>>O=C(Cc1cccnc1)c1[nH]c2ccc(OC(F)(F)F)cc2c1C(=O)O'
p219
(dp220
S'CCOC(=O)c1c(C(=O)Cc2cccnc2)[nH]c2ccc(OC(F)(F)F)cc12'
p221
I-1
sS'O=C(Cc1cccnc1)c1[nH]c2ccc(OC(F)(F)F)cc2c1C(=O)O'
p222
I1
ssS'CC1NC(C(=O)O)Cc2c1[nH]c1cc(Br)ccc21.CN=C=O>>CC1c2[nH]c3cc(Br)ccc3c2CC2C(=O)N(C)C(=O)N21'
p223
(dp224
S'CC1c2[nH]c3cc(Br)ccc3c2CC2C(=O)N(C)C(=O)N21'
p225
I1
sS'CC1NC(C(=O)O)Cc2c1[nH]c1cc(Br)ccc21'
p226
I-1
sS'CN=C=O'
p227
I-1
ssS'Nc1ccc(OC(F)(F)F)cc1>>Nc1c(I)cc(OC(F)(F)F)cc1I'
p228
(dp229
S'Nc1c(I)cc(OC(F)(F)F)cc1I'
p230
I1
sS'Nc1ccc(OC(F)(F)F)cc1'
p231
I-1
ssS'COC(=O)CBr.NC(CO)c1ccccc1>>COC(=O)CNC(CO)c1ccccc1'
p232
(dp233
S'NC(CO)c1ccccc1'
p234
I-1
sS'COC(=O)CBr'
p235
I-1
sS'COC(=O)CNC(CO)c1ccccc1'
p236
I1
ssS'COC(=O)N[C@@H](Cc1cc2ccccc2[nH]1)C(=O)O>>N[C@@H](Cc1cc2ccccc2[nH]1)C(=O)O'
p237
(dp238
S'N[C@@H](Cc1cc2ccccc2[nH]1)C(=O)O'
p239
I1
sS'COC(=O)N[C@@H](Cc1cc2ccccc2[nH]1)C(=O)O'
p240
I-1
ssS'O=C(Cc1ccccc1)NC(Cc1cc2ccccc2[nH]1)C(=O)O>>N[C@@H](Cc1cc2ccccc2[nH]1)C(=O)O'
p241
(dp242
g239
I1
sS'O=C(Cc1ccccc1)NC(Cc1cc2ccccc2[nH]1)C(=O)O'
p243
I-1
ssS'C=CCOC(=O)NC(Cc1cn(C)c2ccccc12)C(=O)OC>>COC(=O)C(N)Cc1cn(C)c2ccccc12'
p244
(dp245
S'COC(=O)C(N)Cc1cn(C)c2ccccc12'
p246
I1
sS'C=CCOC(=O)NC(Cc1cn(C)c2ccccc12)C(=O)OC'
p247
I-1
ssS'COC(=O)c1cc2ccccc2[nH]1.O=S(=O)(Cl)c1ccccc1>>COC(=O)c1cc2ccccc2n1S(=O)(=O)c1ccccc1'
p248
(dp249
S'COC(=O)c1cc2ccccc2[nH]1'
p250
I-1
sS'COC(=O)c1cc2ccccc2n1S(=O)(=O)c1ccccc1'
p251
I1
sS'O=S(=O)(Cl)c1ccccc1'
p252
I-1
ssS'COC(=O)Cl.COC(=O)[C@@H]1CCC(=O)N1>>COC(=O)[C@@H]1CCC(=O)N1C(=O)OC'
p253
(dp254
S'COC(=O)[C@@H]1CCC(=O)N1'
p255
I-1
sS'COC(=O)[C@@H]1CCC(=O)N1C(=O)OC'
p256
I1
sS'COC(=O)Cl'
p257
I-1
ssS'C=CCc1ccc(Cl)nc1>>O=CCc1ccc(Cl)nc1'
p258
(dp259
S'O=CCc1ccc(Cl)nc1'
p260
I1
sS'C=CCc1ccc(Cl)nc1'
p261
I-1
ssS'COC(=O)N[C@@H](CC#Cc1ccccc1N)C(=O)OC(C)(C)C>>COC(=O)N[C@@H](Cc1cc2ccccc2[nH]1)C(=O)OC(C)(C)C'
p262
(dp263
S'COC(=O)N[C@@H](Cc1cc2ccccc2[nH]1)C(=O)OC(C)(C)C'
p264
I1
sS'COC(=O)N[C@@H](CC#Cc1ccccc1N)C(=O)OC(C)(C)C'
p265
I-1
ssS'COCCl.c1ccc2[nH]ccc2c1>>COCn1ccc2ccccc21'
p266
(dp267
S'COCCl'
p268
I-1
sS'c1ccc2[nH]ccc2c1'
p269
I-1
sS'COCn1ccc2ccccc21'
p270
I1
ssS'O=[N+]([O-])/C=C/c1cc2ccccc2[nH]1>>O=[N+]([O-])CCc1cc2ccccc2[nH]1'
p271
(dp272
S'O=[N+]([O-])/C=C/c1cc2ccccc2[nH]1'
p273
I-1
sS'O=[N+]([O-])CCc1cc2ccccc2[nH]1'
p274
I1
ssS'BrCc1cc2ccccc2[nH]1.NCC(=O)O>>N[C@@H](Cc1cc2ccccc2[nH]1)C(=O)O'
p275
(dp276
g239
I1
sS'NCC(=O)O'
p277
I-1
sS'BrCc1cc2ccccc2[nH]1'
p278
I-1
ssS'CC(C)(C)OC(=O)OC(=O)OC(C)(C)C.Nc1ccccc1I>>CC(C)(C)OC(=O)Nc1ccccc1I'
p279
(dp280
S'CC(C)(C)OC(=O)Nc1ccccc1I'
p281
I1
sS'Nc1ccccc1I'
p282
I-1
sS'CC(C)(C)OC(=O)OC(=O)OC(C)(C)C'
p283
I-1
ssS'CCOC(=O)C(=NO)C(=O)OCc1ccccc1>>CCOC(=O)C(N)C(=O)OCc1ccccc1'
p284
(dp285
S'CCOC(=O)C(=NO)C(=O)OCc1ccccc1'
p286
I-1
sS'CCOC(=O)C(N)C(=O)OCc1ccccc1'
p287
I1
ssS'O=C1NC(=O)c2ccccc21.OCCCCCBr>>O=C1c2ccccc2C(=O)N1CCCCCBr'
p288
(dp289
S'O=C1NC(=O)c2ccccc21'
p290
I-1
sS'O=C1c2ccccc2C(=O)N1CCCCCBr'
p291
I1
sS'OCCCCCBr'
p292
I-1
ssS'NCCCCCO>>NCCCCCBr'
p293
(dp294
S'NCCCCCBr'
p295
I1
sS'NCCCCCO'
p296
I-1
ssS'O=C1c2ccccc2C(=O)N1CCCCCOC1CCCCO1>>O=C1c2ccccc2C(=O)N1CCCCCO'
p297
(dp298
S'O=C1c2ccccc2C(=O)N1CCCCCO'
p299
I1
sS'O=C1c2ccccc2C(=O)N1CCCCCOC1CCCCO1'
p300
I-1
ssS'CI.O=C(NC(Cc1c[nH]c2ccccc12)C(=O)OCc1ccccc1)OCc1ccccc1>>Cn1cc(CC(NC(=O)OCc2ccccc2)C(=O)OCc2ccccc2)c2ccccc21'
p301
(dp302
g191
I1
sS'CI'
p303
I-1
sS'O=C(NC(Cc1c[nH]c2ccccc12)C(=O)OCc1ccccc1)OCc1ccccc1'
p304
I-1
ssS'FC(F)(F)Oc1ccc2[nH]ccc2c1.O=CCc1ccc(Cl)nc1>>OC(Cc1ccc(Cl)nc1)c1cc2cc(OC(F)(F)F)ccc2[nH]1'
p305
(dp306
S'FC(F)(F)Oc1ccc2[nH]ccc2c1'
p307
I-1
sS'OC(Cc1ccc(Cl)nc1)c1cc2cc(OC(F)(F)F)ccc2[nH]1'
p308
I1
sS'O=CCc1ccc(Cl)nc1'
p309
I-1
ssS'COC(Cc1cccnc1)OC>>O=CCc1cccnc1'
p310
(dp311
g82
I-1
sg19
I1
ssS'Cc1ccc(S(=O)(=O)N2C(=O)N(C)C(=O)C2Cc2c[nH]c3ccccc23)cc1>>Cc1ccc(S(=O)(=O)N2C(=O)N(C)C(=O)C2CC2C(=O)Nc3ccccc32)cc1'
p312
(dp313
S'Cc1ccc(S(=O)(=O)N2C(=O)N(C)C(=O)C2Cc2c[nH]c3ccccc23)cc1'
p314
I-1
sS'Cc1ccc(S(=O)(=O)N2C(=O)N(C)C(=O)C2CC2C(=O)Nc3ccccc32)cc1'
p315
I1
ssS'CC(C)[Si](OS(=O)(=O)C(F)(F)F)(C(C)C)C(C)C.c1ccc2[nH]ccc2c1>>CC(C)[Si](C(C)C)(C(C)C)n1ccc2ccccc21'
p316
(dp317
S'CC(C)[Si](C(C)C)(C(C)C)n1ccc2ccccc21'
p318
I1
sS'CC(C)[Si](OS(=O)(=O)C(F)(F)F)(C(C)C)C(C)C'
p319
I-1
sS'c1ccc2[nH]ccc2c1'
p320
I-1
ssS'Cc1ccc(S(=O)(=O)N2C(=O)N(C)C(=O)C2Cc2cn(C=O)c3ccccc23)cc1>>Cc1ccc(S(=O)(=O)N2C(=O)N(C)C(=O)C2Cc2c[nH]c3ccccc23)cc1'
p321
(dp322
S'Cc1ccc(S(=O)(=O)N2C(=O)N(C)C(=O)C2Cc2cn(C=O)c3ccccc23)cc1'
p323
I-1
sg314
I1
ssS'O=C1[N-]C(=O)c2ccccc21.OCCCCCBr>>O=C1c2ccccc2C(=O)N1CCCCCO'
p324
(dp325
S'O=C1[N-]C(=O)c2ccccc21'
p326
I-1
sg299
I1
sS'OCCCCCBr'
p327
I-1
ssS'COC(=O)N[C@@H](Cc1cc2ccccc2[nH]1)C(=O)OC>>COC(=O)N[C@@H](Cc1cc2ccccc2[nH]1)C(=O)O'
p328
(dp329
S'COC(=O)N[C@@H](Cc1cc2ccccc2[nH]1)C(=O)OC'
p330
I-1
sg240
I1
ssS'CN(C)C=Cc1cccnc1>>O=CCc1cccnc1'
p331
(dp332
S'CN(C)C=Cc1cccnc1'
p333
I-1
sg19
I1
ssS'C[Si](C)(C)C#CCCO.O=C1NC(=O)c2ccccc21>>C[Si](C)(C)C#CCCN1C(=O)c2ccccc2C1=O'
p334
(dp335
S'O=C1NC(=O)c2ccccc21'
p336
I-1
sS'C[Si](C)(C)C#CCCO'
p337
I-1
sS'C[Si](C)(C)C#CCCN1C(=O)c2ccccc2C1=O'
p338
I1
ssS'CCOC(=O)c1c(C(O)Cc2cccnc2)[nH]c2ccc(OC(F)(F)F)cc12>>CCOC(=O)c1c(C(=O)Cc2cccnc2)[nH]c2ccc(OC(F)(F)F)cc12'
p339
(dp340
g51
I1
sS'CCOC(=O)c1c(C(O)Cc2cccnc2)[nH]c2ccc(OC(F)(F)F)cc12'
p341
I-1
ssS'CCOC(=O)C(NC=O)C(=O)OCC.CN(C)Cc1cn(C)c2ccccc12>>CCOC(=O)C(Cc1cn(C)c2ccccc12)(NC=O)C(=O)OCC'
p342
(dp343
S'CN(C)Cc1cn(C)c2ccccc12'
p344
I-1
sS'CCOC(=O)C(NC=O)C(=O)OCC'
p345
I-1
sS'CCOC(=O)C(Cc1cn(C)c2ccccc12)(NC=O)C(=O)OCC'
p346
I1
ssS'CC(C)(C)OC(=O)Nc1ccccc1CC(=O)CC#N>>CC(C)(C)OC(=O)n1c(CC#N)cc2ccccc21'
p347
(dp348
S'CC(C)(C)OC(=O)n1c(CC#N)cc2ccccc21'
p349
I1
sS'CC(C)(C)OC(=O)Nc1ccccc1CC(=O)CC#N'
p350
I-1
ssS'O=C(c1cccnc1)C(O)c1cc2cc(OC(F)(F)F)ccc2[nH]1>>OC(c1cccnc1)C(O)c1cc2cc(OC(F)(F)F)ccc2[nH]1'
p351
(dp352
S'OC(c1cccnc1)C(O)c1cc2cc(OC(F)(F)F)ccc2[nH]1'
p353
I1
sS'O=C(c1cccnc1)C(O)c1cc2cc(OC(F)(F)F)ccc2[nH]1'
p354
I-1
ssS'CC(C)(C)OC(=O)OC(=O)OC(C)(C)C.COC(=O)Cc1ccccc1N>>COC(=O)Cc1ccccc1NC(=O)OC(C)(C)C'
p355
(dp356
S'COC(=O)Cc1ccccc1N'
p357
I-1
sS'CC(C)(C)OC(=O)OC(=O)OC(C)(C)C'
p358
I-1
sS'COC(=O)Cc1ccccc1NC(=O)OC(C)(C)C'
p359
I1
ssS'CCO.COC(=O)C(Cc1cn(C)c2ccccc12)N(C(=O)OC(C)(C)C)C(C=O)c1ccccc1>>CCOC(=O)C(Cc1cn(C)c2ccccc12)N(C(=O)OC(C)(C)C)C(C=O)c1ccccc1'
p360
(dp361
S'CCOC(=O)C(Cc1cn(C)c2ccccc12)N(C(=O)OC(C)(C)C)C(C=O)c1ccccc1'
p362
I1
sS'CCO'
p363
I-1
sS'COC(=O)C(Cc1cn(C)c2ccccc12)N(C(=O)OC(C)(C)C)C(C=O)c1ccccc1'
p364
I-1
ssS'Cc1ccc(S(=O)(=O)Cl)cc1.Nc1ccccc1C#CCCN1C(=O)c2ccccc2C1=O>>Cc1ccc(S(=O)(=O)Nc2ccccc2C#CCCN2C(=O)c3ccccc3C2=O)cc1'
p365
(dp366
S'Nc1ccccc1C#CCCN1C(=O)c2ccccc2C1=O'
p367
I-1
sS'Cc1ccc(S(=O)(=O)Cl)cc1'
p368
I-1
sS'Cc1ccc(S(=O)(=O)Nc2ccccc2C#CCCN2C(=O)c3ccccc3C2=O)cc1'
p369
I1
ssS'CS(=O)(=O)Nc1ccc(OC(F)(F)F)cc1C=C(Br)Br>>FC(F)(F)Oc1ccc2[nH]c(Br)cc2c1'
p370
(dp371
S'CS(=O)(=O)Nc1ccc(OC(F)(F)F)cc1C=C(Br)Br'
p372
I-1
sS'FC(F)(F)Oc1ccc2[nH]c(Br)cc2c1'
p373
I1
ssS'C=CCBr.Clc1ccc(Br)cn1>>C=CCc1ccc(Cl)nc1'
p374
(dp375
S'C=CCBr'
p376
I-1
sg261
I1
sS'Clc1ccc(Br)cn1'
p377
I-1
ssS'C=COC.Ic1cccnc1>>COC=Cc1cccnc1'
p378
(dp379
S'C=COC'
p380
I-1
sS'Ic1cccnc1'
p381
I-1
sS'COC=Cc1cccnc1'
p382
I1
ssS'CC(C)(C)OC(=O)OC(=O)OC(C)(C)C.Cc1ccc(S(N)(=O)=O)cc1>>Cc1ccc(S(=O)(=O)NC(=O)OC(C)(C)C)cc1'
p383
(dp384
S'Cc1ccc(S(N)(=O)=O)cc1'
p385
I-1
sS'CC(C)(C)OC(=O)OC(=O)OC(C)(C)C'
p386
I-1
sS'Cc1ccc(S(=O)(=O)NC(=O)OC(C)(C)C)cc1'
p387
I1
ssS'CCOC(=O)C(Cc1c[nH]c2ccccc12)N=C(c1ccccc1)c1ccccc1>>CCOC(=O)C(N)Cc1c[nH]c2ccccc12'
p388
(dp389
S'CCOC(=O)C(Cc1c[nH]c2ccccc12)N=C(c1ccccc1)c1ccccc1'
p390
I-1
sS'CCOC(=O)C(N)Cc1c[nH]c2ccccc12'
p391
I1
ssS'NC(Cc1c[nH]c2ccccc12)C(=O)O.O=C(Cl)OCc1ccccc1>>O=C(NC(Cc1c[nH]c2ccccc12)C(=O)O)OCc1ccccc1'
p392
(dp393
S'NC(Cc1c[nH]c2ccccc12)C(=O)O'
p394
I-1
sS'O=C(Cl)OCc1ccccc1'
p395
I-1
sS'O=C(NC(Cc1c[nH]c2ccccc12)C(=O)O)OCc1ccccc1'
p396
I1
ssS'COC(=O)C(Cc1cn(C)c2ccccc12)NC(=O)OC(C)(C)C>>Cn1cc(CC(CO)NC(=O)OC(C)(C)C)c2ccccc21'
p397
(dp398
S'COC(=O)C(Cc1cn(C)c2ccccc12)NC(=O)OC(C)(C)C'
p399
I-1
sS'Cn1cc(CC(CO)NC(=O)OC(C)(C)C)c2ccccc21'
p400
I1
ssS'CC(C)(C)S(=O)NC(Cc1c[nH]c2ccccc12)C(=O)O>>CC(C)(C)S(=O)NC(Cc1c[nH]c2ccccc12)C(N)=O'
p401
(dp402
S'CC(C)(C)S(=O)NC(Cc1c[nH]c2ccccc12)C(N)=O'
p403
I1
sS'CC(C)(C)S(=O)NC(Cc1c[nH]c2ccccc12)C(=O)O'
p404
I-1
ssS'CC(C(O)c1ccccc1)N(C)C(=O)C(N)Cc1cc2ccccc2[nH]1>>NC(Cc1cc2ccccc2[nH]1)C(=O)O'
p405
(dp406
S'CC(C(O)c1ccccc1)N(C)C(=O)C(N)Cc1cc2ccccc2[nH]1'
p407
I-1
sg61
I1
ssS'CCOC(=O)CCC1Cc2ccccc2N1>>CCOC(=O)CCc1cc2ccccc2[nH]1'
p408
(dp409
S'CCOC(=O)CCC1Cc2ccccc2N1'
p410
I-1
sS'CCOC(=O)CCc1cc2ccccc2[nH]1'
p411
I1
ssS'CCO.N#CC(N)Cc1c[nH]c2ccccc12>>CCOC(=O)C(N)Cc1c[nH]c2ccccc12'
p412
(dp413
S'N#CC(N)Cc1c[nH]c2ccccc12'
p414
I-1
sS'CCO'
p415
I-1
sg391
I1
ssS'Nc1ccccc1Cl.O=S(=O)(Cl)c1ccccc1>>O=S(=O)(Nc1ccccc1Cl)c1ccccc1'
p416
(dp417
S'Nc1ccccc1Cl'
p418
I-1
sS'O=S(=O)(Nc1ccccc1Cl)c1ccccc1'
p419
I1
sS'O=S(=O)(Cl)c1ccccc1'
p420
I-1
ssS'CN=C=O.COC(=O)C1Cc2c([nH]c3ccccc23)C(C)N1>>CC1c2[nH]c3ccccc3c2CC2C(=O)N(C)C(=O)N21'
p421
(dp422
S'CN=C=O'
p423
I-1
sS'COC(=O)C1Cc2c([nH]c3ccccc23)C(C)N1'
p424
I-1
sS'CC1c2[nH]c3ccccc3c2CC2C(=O)N(C)C(=O)N21'
p425
I1
ssS'CCOC(=O)c1c(C(O)Cc2cccnc2)[nH]c2ccc(OC(F)(F)F)cc12>>O=C(O)c1c(C(O)Cc2cccnc2)[nH]c2ccc(OC(F)(F)F)cc12'
p426
(dp427
S'O=C(O)c1c(C(O)Cc2cccnc2)[nH]c2ccc(OC(F)(F)F)cc12'
p428
I1
sg52
I-1
ssS'CCOC(=O)C(N)Cc1cn(C)c2ccccc12>>Cn1cc(CC(N)C(=O)O)c2ccccc21'
p429
(dp430
S'Cn1cc(CC(N)C(=O)O)c2ccccc21'
p431
I1
sS'CCOC(=O)C(N)Cc1cn(C)c2ccccc12'
p432
I-1
ssS'BrCc1ccccc1.CC(C)(C)OC(=O)NC(Cc1c[nH]c2ccccc12)C(=O)O>>CC(C)(C)OC(=O)NC(Cc1c[nH]c2ccccc12)C(=O)OCc1ccccc1'
p433
(dp434
S'BrCc1ccccc1'
p435
I-1
sS'CC(C)(C)OC(=O)NC(Cc1c[nH]c2ccccc12)C(=O)O'
p436
I-1
sS'CC(C)(C)OC(=O)NC(Cc1c[nH]c2ccccc12)C(=O)OCc1ccccc1'
p437
I1
ssS'Cc1ccc(S(=O)(=O)n2c(CC(O[Si](C)(C)C(C)(C)C)c3cccnc3)cc3cc(OC(F)(F)F)ccc32)cc1>>CC(C)(C)[Si](C)(C)OC(Cc1cc2cc(OC(F)(F)F)ccc2[nH]1)c1cccnc1'
p438
(dp439
S'Cc1ccc(S(=O)(=O)n2c(CC(O[Si](C)(C)C(C)(C)C)c3cccnc3)cc3cc(OC(F)(F)F)ccc32)cc1'
p440
I-1
sS'CC(C)(C)[Si](C)(C)OC(Cc1cc2cc(OC(F)(F)F)ccc2[nH]1)c1cccnc1'
p441
I1
ssS'CC(C)(C)OC(=O)NC(Cc1c[nH]c2ccccc12)C(=O)O.CI.CI>>COC(=O)C(Cc1cn(C)c2ccccc12)NC(=O)OC(C)(C)C'
p442
(dp443
S'CC(C)(C)OC(=O)NC(Cc1c[nH]c2ccccc12)C(=O)O'
p444
I-1
sS'CI'
p445
I-1
sg95
I1
ssS'NCCCCCCl.Nc1nc2ccccc2[n+]([O-])n1>>NCCCCCNc1nc2ccccc2[n+]([O-])n1'
p446
(dp447
S'NCCCCCCl'
p448
I-1
sS'Nc1nc2ccccc2[n+]([O-])n1'
p449
I-1
sS'NCCCCCNc1nc2ccccc2[n+]([O-])n1'
p450
I1
ssS'CC(C)(C)[Si](C)(C)OC(C(=O)c1cccnc1)c1cc2cc(OC(F)(F)F)ccc2[nH]1>>O=C(c1cccnc1)C(O)c1cc2cc(OC(F)(F)F)ccc2[nH]1'
p451
(dp452
S'CC(C)(C)[Si](C)(C)OC(C(=O)c1cccnc1)c1cc2cc(OC(F)(F)F)ccc2[nH]1'
p453
I-1
sg135
I1
ssS'CI.COC(=O)C(Cc1c[nH]c2ccccc12)NC(C)=O>>COC(=O)C(Cc1cn(C)c2ccccc12)NC(C)=O'
p454
(dp455
S'CI'
p456
I-1
sS'COC(=O)C(Cc1cn(C)c2ccccc12)NC(C)=O'
p457
I1
sS'COC(=O)C(Cc1c[nH]c2ccccc12)NC(C)=O'
p458
I-1
ssS'CS(=O)(=O)Cl.OCCc1ccccc1Br>>CS(=O)(=O)OCCc1ccccc1Br'
p459
(dp460
S'OCCc1ccccc1Br'
p461
I-1
sS'CS(=O)(=O)OCCc1ccccc1Br'
p462
I1
sS'CS(=O)(=O)Cl'
p463
I-1
ssS'C[Sn](C)(C)[Sn](C)(C)C.Ic1cccnc1>>C[Sn](C)(C)c1cccnc1'
p464
(dp465
S'Ic1cccnc1'
p466
I-1
sS'C[Sn](C)(C)[Sn](C)(C)C'
p467
I-1
sS'C[Sn](C)(C)c1cccnc1'
p468
I1
ssS'C#CCC(NC(=O)OC(C)(C)C)C(=O)OC.Nc1ccccc1I>>COC(=O)C(CC#Cc1ccccc1N)NC(=O)OC(C)(C)C'
p469
(dp470
S'C#CCC(NC(=O)OC(C)(C)C)C(=O)OC'
p471
I-1
sS'Nc1ccccc1I'
p472
I-1
sS'COC(=O)C(CC#Cc1ccccc1N)NC(=O)OC(C)(C)C'
p473
I1
ssS'Cc1ccc(S(=O)(=O)Cl)cc1.FC(F)(F)Oc1ccc2[nH]ccc2c1>>Cc1ccc(S(=O)(=O)n2ccc3cc(OC(F)(F)F)ccc32)cc1'
p474
(dp475
S'FC(F)(F)Oc1ccc2[nH]ccc2c1'
p476
I-1
sS'Cc1ccc(S(=O)(=O)Cl)cc1'
p477
I-1
sS'Cc1ccc(S(=O)(=O)n2ccc3cc(OC(F)(F)F)ccc32)cc1'
p478
I1
ssS'Cc1ccc(S(=O)(=O)n2c(CCO)cc3cc(OC(F)(F)F)ccc32)cc1>>Cc1ccc(S(=O)(=O)n2c(CC=O)cc3cc(OC(F)(F)F)ccc32)cc1'
p479
(dp480
S'Cc1ccc(S(=O)(=O)n2c(CCO)cc3cc(OC(F)(F)F)ccc32)cc1'
p481
I-1
sS'Cc1ccc(S(=O)(=O)n2c(CC=O)cc3cc(OC(F)(F)F)ccc32)cc1'
p482
I1
ssS'CCOC(=O)c1c[nH]c2ccccc12.CNC>>CN(C)C(=O)c1c[nH]c2ccccc12'
p483
(dp484
S'CCOC(=O)c1c[nH]c2ccccc12'
p485
I-1
sS'CNC'
p486
I-1
sS'CN(C)C(=O)c1c[nH]c2ccccc12'
p487
I1
ssS'Cn1cc(CC(NC(=O)OC(C)(C)C)C(=O)O)c2ccccc21>>Cn1cc(CC(N)C(=O)O)c2ccccc21'
p488
(dp489
g431
I1
sS'Cn1cc(CC(NC(=O)OC(C)(C)C)C(=O)O)c2ccccc21'
p490
I-1
ssS'CC(=O)OC(C)=O.COC(=O)C(N)C(=O)OC>>COC(=O)C(NC(C)=O)C(=O)OC'
p491
(dp492
S'COC(=O)C(NC(C)=O)C(=O)OC'
p493
I1
sS'COC(=O)C(N)C(=O)OC'
p494
I-1
sS'CC(=O)OC(C)=O'
p495
I-1
ssS'CC(=O)NC(Cc1c[nH]c2ccccc12)C(=O)O>>NC(Cc1c[nH]c2ccccc12)C(=O)O'
p496
(dp497
S'CC(=O)NC(Cc1c[nH]c2ccccc12)C(=O)O'
p498
I-1
sS'NC(Cc1c[nH]c2ccccc12)C(=O)O'
p499
I1
ssS'O=C1c2ccccc2C(=O)N1CCc1cc2ccccc2n1S(=O)(=O)c1ccccc1>>O=C1c2ccccc2C(=O)N1CCc1cc2ccccc2[nH]1'
p500
(dp501
S'O=C1c2ccccc2C(=O)N1CCc1cc2ccccc2[nH]1'
p502
I1
sS'O=C1c2ccccc2C(=O)N1CCc1cc2ccccc2n1S(=O)(=O)c1ccccc1'
p503
I-1
ssS'N#CCN.O=C(c1ccccc1)c1ccccc1>>N#CCN=C(c1ccccc1)c1ccccc1'
p504
(dp505
S'N#CCN'
p506
I-1
sS'N#CCN=C(c1ccccc1)c1ccccc1'
p507
I1
sS'O=C(c1ccccc1)c1ccccc1'
p508
I-1
ssS'O=C1c2ccccc2C(=O)N1CCCCCO>>O=C1c2ccccc2C(=O)N1CCCCCBr'
p509
(dp510
g291
I1
sg299
I-1
ssS'O=C(NC(Cc1c[nH]c2ccccc12)C(=O)O)OCc1ccccc1>>NC(Cc1c[nH]c2ccccc12)C(=O)O'
p511
(dp512
g499
I1
sg396
I-1
ssS'CCOC(=O)C(Cc1cc2ccccc2[nH]1)N=C(c1ccccc1)c1ccccc1>>CCOC(=O)C(N)Cc1cc2ccccc2[nH]1'
p513
(dp514
S'CCOC(=O)C(Cc1cc2ccccc2[nH]1)N=C(c1ccccc1)c1ccccc1'
p515
I-1
sS'CCOC(=O)C(N)Cc1cc2ccccc2[nH]1'
p516
I1
ssS'CC(C)(C)OC(=O)Nc1ccccc1C#CCCN1C(=O)c2ccccc2C1=O>>CC(C)(C)OC(=O)n1c(CCN2C(=O)c3ccccc3C2=O)cc2ccccc21'
p517
(dp518
S'CC(C)(C)OC(=O)Nc1ccccc1C#CCCN1C(=O)c2ccccc2C1=O'
p519
I-1
sS'CC(C)(C)OC(=O)n1c(CCN2C(=O)c3ccccc3C2=O)cc2ccccc21'
p520
I1
ssS'CC(C)(C)OC(=O)CN.N=C(c1ccccc1)c1ccccc1>>CC(C)(C)OC(=O)CN=C(c1ccccc1)c1ccccc1'
p521
(dp522
S'N=C(c1ccccc1)c1ccccc1'
p523
I-1
sS'CC(C)(C)OC(=O)CN=C(c1ccccc1)c1ccccc1'
p524
I1
sS'CC(C)(C)OC(=O)CN'
p525
I-1
ssS'COC(=O)[C@H](CC#Cc1ccccc1N)NC(=O)OC(C)(C)C>>COC(=O)[C@H](Cc1cc2ccccc2[nH]1)NC(=O)OC(C)(C)C'
p526
(dp527
S'COC(=O)[C@H](CC#Cc1ccccc1N)NC(=O)OC(C)(C)C'
p528
I-1
sS'COC(=O)[C@H](Cc1cc2ccccc2[nH]1)NC(=O)OC(C)(C)C'
p529
I1
ssS'O=C(NCCCCCNc1nc2ccccc2[n+]([O-])n1)C(F)(F)F>>NCCCCCNc1nc2ccccc2[n+]([O-])n1'
p530
(dp531
g450
I1
sS'O=C(NCCCCCNc1nc2ccccc2[n+]([O-])n1)C(F)(F)F'
p532
I-1
ssS'CC(C)(C)OC(=O)n1c(CC#N)cc2ccccc21>>N#CCc1cc2ccccc2[nH]1'
p533
(dp534
g349
I-1
sS'N#CCc1cc2ccccc2[nH]1'
p535
I1
ssS'CCOC(=O)C(Cc1cn(C)c2ccccc12)N=C(c1ccccc1)c1ccccc1>>CCOC(=O)C(N)Cc1cn(C)c2ccccc12'
p536
(dp537
S'CCOC(=O)C(Cc1cn(C)c2ccccc12)N=C(c1ccccc1)c1ccccc1'
p538
I-1
sg432
I1
ssS'CC(C)(C)OC(=O)NC(Cc1c[nH]c2ccccc12)C(=O)O.CC(C)O>>CC(C)OC(=O)C(Cc1c[nH]c2ccccc12)NC(=O)OC(C)(C)C'
p539
(dp540
S'CC(C)(C)OC(=O)NC(Cc1c[nH]c2ccccc12)C(=O)O'
p541
I-1
sS'CC(C)OC(=O)C(Cc1c[nH]c2ccccc12)NC(=O)OC(C)(C)C'
p542
I1
sS'CC(C)O'
p543
I-1
ssS'CC1c2c(c3ccc(Br)cc3n2C(=O)OC(C)(C)C)CC2C(=O)N(C)C(=O)N21>>CC1c2[nH]c3cc(Br)ccc3c2CC2C(=O)N(C)C(=O)N21'
p544
(dp545
g225
I1
sS'CC1c2c(c3ccc(Br)cc3n2C(=O)OC(C)(C)C)CC2C(=O)N(C)C(=O)N21'
p546
I-1
ssS'O=C1NC(=O)C(Cc2c[nH]c3ccccc23)N1>>NC(=O)N[C@H](Cc1c[nH]c2ccccc12)C(=O)O'
p547
(dp548
S'O=C1NC(=O)C(Cc2c[nH]c3ccccc23)N1'
p549
I-1
sS'NC(=O)N[C@H](Cc1c[nH]c2ccccc12)C(=O)O'
p550
I1
ssS'C#CC(Cc1cccnc1)O[Si](C)(C)C(C)(C)C.Nc1ccc(OC(F)(F)F)cc1Br>>CC(C)(C)[Si](C)(C)OC(C#Cc1cc(OC(F)(F)F)ccc1N)Cc1cccnc1'
p551
(dp552
S'CC(C)(C)[Si](C)(C)OC(C#Cc1cc(OC(F)(F)F)ccc1N)Cc1cccnc1'
p553
I1
sS'C#CC(Cc1cccnc1)O[Si](C)(C)C(C)(C)C'
p554
I-1
sS'Nc1ccc(OC(F)(F)F)cc1Br'
p555
I-1
ssS'CC(C)(C)OC(=O)OC(=O)OC(C)(C)C.COC(=O)CCN>>COC(=O)CCNC(=O)OC(C)(C)C'
p556
(dp557
S'COC(=O)CCN'
p558
I-1
sS'CC(C)(C)OC(=O)OC(=O)OC(C)(C)C'
p559
I-1
sS'COC(=O)CCNC(=O)OC(C)(C)C'
p560
I1
ssS'Nc1ccc(OC(F)(F)F)cc1I>>Nc1c(I)cc(OC(F)(F)F)cc1I'
p561
(dp562
g230
I1
sS'Nc1ccc(OC(F)(F)F)cc1I'
p563
I-1
ssS'Cc1cc2cc(OC(F)(F)F)ccc2[nH]1>>O=Cc1cc2cc(OC(F)(F)F)ccc2[nH]1'
p564
(dp565
S'O=Cc1cc2cc(OC(F)(F)F)ccc2[nH]1'
p566
I1
sS'Cc1cc2cc(OC(F)(F)F)ccc2[nH]1'
p567
I-1
ssS'C#C[Mg]Br.O=CCc1cccnc1>>C#CC(O)Cc1cccnc1'
p568
(dp569
S'C#C[Mg]Br'
p570
I-1
sS'C#CC(O)Cc1cccnc1'
p571
I1
sS'O=CCc1cccnc1'
p572
I-1
ssS'C#CC[C@H](NC(=O)OCc1ccccc1)C(=O)OC.O=[N+]([O-])c1ccccc1I>>COC(=O)[C@H](CC#Cc1ccccc1[N+](=O)[O-])NC(=O)OCc1ccccc1'
p573
(dp574
S'COC(=O)[C@H](CC#Cc1ccccc1[N+](=O)[O-])NC(=O)OCc1ccccc1'
p575
I1
sS'O=[N+]([O-])c1ccccc1I'
p576
I-1
sS'C#CC[C@H](NC(=O)OCc1ccccc1)C(=O)OC'
p577
I-1
ssS'COC(=O)C(Cc1cc2ccccc2[nH]1)NC(=O)OCc1ccccc1>>O=C(NC(Cc1cc2ccccc2[nH]1)C(=O)O)OCc1ccccc1'
p578
(dp579
S'O=C(NC(Cc1cc2ccccc2[nH]1)C(=O)O)OCc1ccccc1'
p580
I1
sS'COC(=O)C(Cc1cc2ccccc2[nH]1)NC(=O)OCc1ccccc1'
p581
I-1
ssS'COC(=O)[C@H](CO)NC(=O)OC(C)(C)C>>C=C(NC(=O)OC(C)(C)C)C(=O)OC'
p582
(dp583
S'COC(=O)[C@H](CO)NC(=O)OC(C)(C)C'
p584
I-1
sS'C=C(NC(=O)OC(C)(C)C)C(=O)OC'
p585
I1
ssS'O=C(CBr)c1cc2ccccc2[nH]1.O=C1CCC(=O)[N-]1>>O=C(CN1C(=O)CCC1=O)c1cc2ccccc2[nH]1'
p586
(dp587
S'O=C1CCC(=O)[N-]1'
p588
I-1
sS'O=C(CBr)c1cc2ccccc2[nH]1'
p589
I-1
sS'O=C(CN1C(=O)CCC1=O)c1cc2ccccc2[nH]1'
p590
I1
ssS'C[Si](C)(C)C#CC(O)Cc1cccnc1>>C#CC(O)Cc1cccnc1'
p591
(dp592
S'C[Si](C)(C)C#CC(O)Cc1cccnc1'
p593
I-1
sg571
I1
ssS'CO.O=C(O)c1cc2cc(OC(F)(F)F)ccc2[nH]1>>COC(=O)c1cc2cc(OC(F)(F)F)ccc2[nH]1'
p594
(dp595
S'CO'
p596
I-1
sS'O=C(O)c1cc2cc(OC(F)(F)F)ccc2[nH]1'
p597
I-1
sS'COC(=O)c1cc2cc(OC(F)(F)F)ccc2[nH]1'
p598
I1
ssS'NC(=O)C(N)Cc1cc2ccccc2[nH]1>>N[C@@H](Cc1cc2ccccc2[nH]1)C(=O)O'
p599
(dp600
g239
I1
sS'NC(=O)C(N)Cc1cc2ccccc2[nH]1'
p601
I-1
ssS'BrCc1ccccc1.C#CCC(NC(=O)OC(C)(C)C)C(=O)O>>C#CCC(NC(=O)OC(C)(C)C)C(=O)OCc1ccccc1'
p602
(dp603
S'BrCc1ccccc1'
p604
I-1
sS'C#CCC(NC(=O)OC(C)(C)C)C(=O)OCc1ccccc1'
p605
I1
sS'C#CCC(NC(=O)OC(C)(C)C)C(=O)O'
p606
I-1
ssS'CCOC(=O)C(NC=O)C(=O)OCC.CS(=O)(=O)OCc1cc2ccccc2[nH]1>>CCOC(=O)C(Cc1cc2ccccc2[nH]1)(NC=O)C(=O)OCC'
p607
(dp608
g60
I1
sS'CS(=O)(=O)OCc1cc2ccccc2[nH]1'
p609
I-1
sS'CCOC(=O)C(NC=O)C(=O)OCC'
p610
I-1
ssS'CCOC(=O)c1c[nH]c2ccccc12.COS(=O)(=O)OC>>CCOC(=O)c1cn(C)c2ccccc12'
p611
(dp612
S'CCOC(=O)c1c[nH]c2ccccc12'
p613
I-1
sS'COS(=O)(=O)OC'
p614
I-1
sS'CCOC(=O)c1cn(C)c2ccccc12'
p615
I1
ssS'C[Si](C)(C)C#CCCN1C(=O)c2ccccc2C1=O>>C#CCCN1C(=O)c2ccccc2C1=O'
p616
(dp617
g338
I-1
sS'C#CCCN1C(=O)c2ccccc2C1=O'
p618
I1
ssS'ClC(Cl)(Cl)C(c1ccccc1)c1ccccc1>>c1ccc(Cc2ccccc2)cc1'
p619
(dp620
S'ClC(Cl)(Cl)C(c1ccccc1)c1ccccc1'
p621
I-1
sS'c1ccc(Cc2ccccc2)cc1'
p622
I1
ssS'CN1C(=O)NC(Cc2c[nH]c3ccccc23)C1=O>>CN1C(=O)C(Cc2c[nH]c3ccccc23)NC1=S'
p623
(dp624
S'CN1C(=O)NC(Cc2c[nH]c3ccccc23)C1=O'
p625
I-1
sS'CN1C(=O)C(Cc2c[nH]c3ccccc23)NC1=S'
p626
I1
ssS'CNC(=S)NC(Cc1c[nH]c2ccccc12)C(=O)O>>CN1C(=O)C(Cc2c[nH]c3ccccc23)NC1=S'
p627
(dp628
S'CNC(=S)NC(Cc1c[nH]c2ccccc12)C(=O)O'
p629
I-1
sg626
I1
ssS'CS(=O)(=O)N(c1ccc(OC(F)(F)F)cc1I)S(C)(=O)=O>>CS(=O)(=O)Nc1ccc(OC(F)(F)F)cc1I'
p630
(dp631
S'CS(=O)(=O)N(c1ccc(OC(F)(F)F)cc1I)S(C)(=O)=O'
p632
I-1
sS'CS(=O)(=O)Nc1ccc(OC(F)(F)F)cc1I'
p633
I1
ssS'CCOC(=O)C(Cc1cc2ccccc2[nH]1)NC(=O)OC>>COC(=O)NC(Cc1cc2ccccc2[nH]1)C(=O)O'
p634
(dp635
S'CCOC(=O)C(Cc1cc2ccccc2[nH]1)NC(=O)OC'
p636
I-1
sS'COC(=O)NC(Cc1cc2ccccc2[nH]1)C(=O)O'
p637
I1
ssS'CC(C)(C)O.O=C(OC(Cl)(Cl)Cl)OC(Cl)(Cl)Cl>>CC(C)(C)OC(=O)Cl'
p638
(dp639
S'CC(C)(C)O'
p640
I-1
sS'O=C(OC(Cl)(Cl)Cl)OC(Cl)(Cl)Cl'
p641
I-1
sS'CC(C)(C)OC(=O)Cl'
p642
I1
ssS'Cn1cc(CC(NC(=O)c2ccccc2)C(=O)O)c2ccccc21>>Cn1cc(CC(N)C(=O)O)c2ccccc21'
p643
(dp644
S'Cn1cc(CC(NC(=O)c2ccccc2)C(=O)O)c2ccccc21'
p645
I-1
sg431
I1
ssS'Brc1cccnc1.C=COCC>>CCO/C=C\\c1cccnc1'
p646
(dp647
S'C=COCC'
p648
I-1
sS'CCO/C=C\\c1cccnc1'
p649
I1
sS'Brc1cccnc1'
p650
I-1
ssS'C[N+](=O)[O-].O=Cc1cc2ccccc2[nH]1>>O=[N+]([O-])C=Cc1cc2ccccc2[nH]1'
p651
(dp652
S'O=[N+]([O-])C=Cc1cc2ccccc2[nH]1'
p653
I1
sS'O=Cc1cc2ccccc2[nH]1'
p654
I-1
sS'C[N+](=O)[O-]'
p655
I-1
ssS'CC(C)(C)[Si](C)(C)OC(Cc1cccnc1)c1cc2cc(OC(F)(F)F)ccc2[nH]1>>OC(Cc1cccnc1)c1cc2cc(OC(F)(F)F)ccc2[nH]1'
p656
(dp657
S'OC(Cc1cccnc1)c1cc2cc(OC(F)(F)F)ccc2[nH]1'
p658
I1
sS'CC(C)(C)[Si](C)(C)OC(Cc1cccnc1)c1cc2cc(OC(F)(F)F)ccc2[nH]1'
p659
I-1
ssS'CN(C)C(=O)c1cn(C)c2ccccc12>>CN(C)Cc1cn(C)c2ccccc12'
p660
(dp661
S'CN(C)Cc1cn(C)c2ccccc12'
p662
I1
sS'CN(C)C(=O)c1cn(C)c2ccccc12'
p663
I-1
ssS'O=S(=O)(c1ccccc1)n1c(CBr)cc2ccccc21.[C-]#N>>N#CCc1cc2ccccc2n1S(=O)(=O)c1ccccc1'
p664
(dp665
S'N#CCc1cc2ccccc2n1S(=O)(=O)c1ccccc1'
p666
I1
sS'O=S(=O)(c1ccccc1)n1c(CBr)cc2ccccc21'
p667
I-1
sS'[C-]#N'
p668
I-1
ssS'COC(=O)C(O[Si](C)(C)C(C)(C)C)c1cc2cc(OC(F)(F)F)ccc2[nH]1>>CC(C)(C)[Si](C)(C)OC(CO)c1cc2cc(OC(F)(F)F)ccc2[nH]1'
p669
(dp670
S'CC(C)(C)[Si](C)(C)OC(CO)c1cc2cc(OC(F)(F)F)ccc2[nH]1'
p671
I1
sS'COC(=O)C(O[Si](C)(C)C(C)(C)C)c1cc2cc(OC(F)(F)F)ccc2[nH]1'
p672
I-1
ssS'c1ccc2[nH]ccc2c1>>Brc1c[nH]c2ccccc12'
p673
(dp674
S'Brc1c[nH]c2ccccc12'
p675
I1
sS'c1ccc2[nH]ccc2c1'
p676
I-1
ssS'O=C(CCl)NC(Cc1cc2ccccc2[nH]1)C(=O)O>>N[C@@H](Cc1cc2ccccc2[nH]1)C(=O)O'
p677
(dp678
g239
I1
sS'O=C(CCl)NC(Cc1cc2ccccc2[nH]1)C(=O)O'
p679
I-1
ssS'CC(=O)OC(C)=O.NCCc1cccc(OC(F)(F)F)c1>>CC(=O)NCCc1cccc(OC(F)(F)F)c1'
p680
(dp681
S'NCCc1cccc(OC(F)(F)F)c1'
p682
I-1
sS'CC(=O)NCCc1cccc(OC(F)(F)F)c1'
p683
I1
sS'CC(=O)OC(C)=O'
p684
I-1
ssS'C#CCBr.CCOC(=O)CN=C(c1ccccc1)c1ccccc1>>C#CCC(N=C(c1ccccc1)c1ccccc1)C(=O)OCC'
p685
(dp686
S'CCOC(=O)CN=C(c1ccccc1)c1ccccc1'
p687
I-1
sS'C#CCC(N=C(c1ccccc1)c1ccccc1)C(=O)OCC'
p688
I1
sS'C#CCBr'
p689
I-1
ssS'NC(=O)N[C@@H](Cc1cc2ccccc2[nH]1)C(=O)O>>N[C@@H](Cc1cc2ccccc2[nH]1)C(=O)O'
p690
(dp691
g239
I1
sS'NC(=O)N[C@@H](Cc1cc2ccccc2[nH]1)C(=O)O'
p692
I-1
ssS'C#Cc1cc(OC(F)(F)F)ccc1[N+](=O)[O-].C1CCNC1>>O=[N+]([O-])c1ccc(OC(F)(F)F)cc1/C=C/N1CCCC1'
p693
(dp694
S'C#Cc1cc(OC(F)(F)F)ccc1[N+](=O)[O-]'
p695
I-1
sS'O=[N+]([O-])c1ccc(OC(F)(F)F)cc1/C=C/N1CCCC1'
p696
I1
sS'C1CCNC1'
p697
I-1
ssS'CCOC(=O)C(N)Cc1cn(C)c2ccccc12.CO>>COC(=O)C(N)Cc1cn(C)c2ccccc12'
p698
(dp699
g27
I1
sS'CO'
p700
I-1
sS'CCOC(=O)C(N)Cc1cn(C)c2ccccc12'
p701
I-1
ssS'Cn1cc(CC(NC=O)C(=O)OCc2ccccc2)c2ccccc21>>Cn1cc(CC(NC=O)C(=O)O)c2ccccc21'
p702
(dp703
S'Cn1cc(CC(NC=O)C(=O)OCc2ccccc2)c2ccccc21'
p704
I-1
sS'Cn1cc(CC(NC=O)C(=O)O)c2ccccc21'
p705
I1
ssS'C#C[Si](C)(C)C>>[Li]C#C[Si](C)(C)C'
p706
(dp707
S'[Li]C#C[Si](C)(C)C'
p708
I1
sS'C#C[Si](C)(C)C'
p709
I-1
ssS'COC(=O)[C@H](CC#Cc1ccccc1[N+](=O)[O-])NC(=O)C(F)(F)F>>COC(=O)[C@H](CC#Cc1ccccc1N)NC(=O)C(F)(F)F'
p710
(dp711
S'COC(=O)[C@H](CC#Cc1ccccc1[N+](=O)[O-])NC(=O)C(F)(F)F'
p712
I-1
sg213
I1
ssS'CC(C)(C)OC(=O)NC(Cc1cc2ccccc2[nH]1)C(=O)OCc1ccccc1>>NC(Cc1cc2ccccc2[nH]1)C(=O)OCc1ccccc1'
p713
(dp714
S'CC(C)(C)OC(=O)NC(Cc1cc2ccccc2[nH]1)C(=O)OCc1ccccc1'
p715
I-1
sS'NC(Cc1cc2ccccc2[nH]1)C(=O)OCc1ccccc1'
p716
I1
ssS'CCOC(=O)C(Cc1c[nH]c2ccccc12)(NC=O)C(=O)OCC>>NC(Cc1c[nH]c2ccccc12)C(=O)O'
p717
(dp718
S'CCOC(=O)C(Cc1c[nH]c2ccccc12)(NC=O)C(=O)OCC'
p719
I-1
sg499
I1
ssS'CC(C)(C)OC(=O)NC(Cc1cc2ccccc2[nH]1)C(=O)OCc1ccccc1>>CC(C)(C)OC(=O)NC(Cc1cc2ccccc2[nH]1)C(=O)O'
p720
(dp721
S'CC(C)(C)OC(=O)NC(Cc1cc2ccccc2[nH]1)C(=O)OCc1ccccc1'
p722
I-1
sS'CC(C)(C)OC(=O)NC(Cc1cc2ccccc2[nH]1)C(=O)O'
p723
I1
ssS'Cl.Cn1cc(C(=O)O)c2ccccc21>>Cn1cc(C(=O)Cl)c2ccccc21'
p724
(dp725
S'Cn1cc(C(=O)Cl)c2ccccc21'
p726
I1
sS'Cn1cc(C(=O)O)c2ccccc21'
p727
I-1
sS'Cl'
p728
I-1
ssS'CC(=O)OC(C)=O.OC(Cc1ccc(Cl)nc1)c1cc2cc(OC(F)(F)F)ccc2[nH]1>>CC(=O)OC(Cc1ccc(Cl)nc1)c1cc2cc(OC(F)(F)F)ccc2[nH]1'
p729
(dp730
S'OC(Cc1ccc(Cl)nc1)c1cc2cc(OC(F)(F)F)ccc2[nH]1'
p731
I-1
sS'CC(=O)OC(C)=O'
p732
I-1
sg104
I1
ssS'Cn1cc(CC2C(=O)OC(=O)N2C(=O)OC(C)(C)C)c2ccccc21>>Cn1cc(CC(C=O)NC(=O)OC(C)(C)C)c2ccccc21'
p733
(dp734
S'Cn1cc(CC2C(=O)OC(=O)N2C(=O)OC(C)(C)C)c2ccccc21'
p735
I-1
sS'Cn1cc(CC(C=O)NC(=O)OC(C)(C)C)c2ccccc21'
p736
I1
ssS'CC(C)(C)OC(=O)NC(Cc1c[nH]c2ccccc12)C(=O)OCc1ccccc1>>NC(Cc1c[nH]c2ccccc12)C(=O)OCc1ccccc1'
p737
(dp738
S'NC(Cc1c[nH]c2ccccc12)C(=O)OCc1ccccc1'
p739
I1
sS'CC(C)(C)OC(=O)NC(Cc1c[nH]c2ccccc12)C(=O)OCc1ccccc1'
p740
I-1
ssS'C#CC[C@H](NC(=O)C(F)(F)F)C(=O)OC.O=[N+]([O-])c1ccccc1I>>COC(=O)[C@H](CC#Cc1ccccc1[N+](=O)[O-])NC(=O)C(F)(F)F'
p741
(dp742
S'C#CC[C@H](NC(=O)C(F)(F)F)C(=O)OC'
p743
I-1
sg712
I1
sS'O=[N+]([O-])c1ccccc1I'
p744
I-1
ssS'CC(C)(C)OC(=O)OC(=O)OC(C)(C)C.COC(=O)CNC(CO)c1ccccc1>>COC(=O)CN(C(=O)OC(C)(C)C)C(CO)c1ccccc1'
p745
(dp746
S'COC(=O)CNC(CO)c1ccccc1'
p747
I-1
sS'CC(C)(C)OC(=O)OC(=O)OC(C)(C)C'
p748
I-1
sS'COC(=O)CN(C(=O)OC(C)(C)C)C(CO)c1ccccc1'
p749
I1
ssS'CS(=O)(=O)Cl.C[Si](C)(C)C#Cc1cc(OC(F)(F)F)ccc1N>>C[Si](C)(C)C#Cc1cc(OC(F)(F)F)ccc1NS(C)(=O)=O'
p750
(dp751
S'C[Si](C)(C)C#Cc1cc(OC(F)(F)F)ccc1NS(C)(=O)=O'
p752
I1
sS'C[Si](C)(C)C#Cc1cc(OC(F)(F)F)ccc1N'
p753
I-1
sS'CS(=O)(=O)Cl'
p754
I-1
ssS'CN1C(=O)CNC1=O.O=Cc1c[nH]c2ccccc12>>CN1C(=O)N/C(=C/c2c[nH]c3ccccc23)C1=O'
p755
(dp756
S'O=Cc1c[nH]c2ccccc12'
p757
I-1
sS'CN1C(=O)CNC1=O'
p758
I-1
sS'CN1C(=O)N/C(=C/c2c[nH]c3ccccc23)C1=O'
p759
I1
ssS'CC(C)(C)OC(=O)C(N)Cc1c[nH]c2ccccc12>>NC(Cc1c[nH]c2ccccc12)C(=O)O'
p760
(dp761
S'CC(C)(C)OC(=O)C(N)Cc1c[nH]c2ccccc12'
p762
I-1
sg499
I1
ssS'Cn1cc(CC(N=C(c2ccccc2)c2ccccc2)C(=O)OCc2ccccc2)c2ccccc21>>Cn1cc(CC(N)C(=O)OCc2ccccc2)c2ccccc21'
p763
(dp764
S'Cn1cc(CC(N)C(=O)OCc2ccccc2)c2ccccc21'
p765
I1
sS'Cn1cc(CC(N=C(c2ccccc2)c2ccccc2)C(=O)OCc2ccccc2)c2ccccc21'
p766
I-1
ssS'O=C(F)Cc1cc2ccccc2[nH]1>>NC(=O)Cc1cc2ccccc2[nH]1'
p767
(dp768
S'O=C(F)Cc1cc2ccccc2[nH]1'
p769
I-1
sg48
I1
ssS'FC(F)(F)Oc1ccc2[nH]ccc2c1>>O=Cc1c[nH]c2ccc(OC(F)(F)F)cc12'
p770
(dp771
S'FC(F)(F)Oc1ccc2[nH]ccc2c1'
p772
I-1
sS'O=Cc1c[nH]c2ccc(OC(F)(F)F)cc12'
p773
I1
ssS'[C-]#N>>[N-]=C=O'
p774
(dp775
S'[N-]=C=O'
p776
I1
sS'[C-]#N'
p777
I-1
ssS'CCOC(=O)C(N)Cc1c[nH]c2ccccc12.COC(=O)Cl>>CCOC(=O)C(Cc1c[nH]c2ccccc12)NC(=O)OC'
p778
(dp779
S'CCOC(=O)C(Cc1c[nH]c2ccccc12)NC(=O)OC'
p780
I1
sS'COC(=O)Cl'
p781
I-1
sS'CCOC(=O)C(N)Cc1c[nH]c2ccccc12'
p782
I-1
ssS'CC1c2[nH]c3c(Br)c(Br)ccc3c2CC2C(=O)N(C)C(=O)N21>>CC1c2[nH]c3cc(Br)ccc3c2CC2C(=O)N(C)C(=O)N21'
p783
(dp784
g225
I1
sS'CC1c2[nH]c3c(Br)c(Br)ccc3c2CC2C(=O)N(C)C(=O)N21'
p785
I-1
ssS'COC(=O)[C@H](CC#Cc1ccccc1N)NC(C)=O>>COC(=O)[C@H](Cc1cc2ccccc2[nH]1)NC(C)=O'
p786
(dp787
S'COC(=O)[C@H](CC#Cc1ccccc1N)NC(C)=O'
p788
I-1
sS'COC(=O)[C@H](Cc1cc2ccccc2[nH]1)NC(C)=O'
p789
I1
ssS'C=CC(O[Si](C)(C)C(C)(C)C)c1cc2cc(OC(F)(F)F)ccc2[nH]1>>CC(C)(C)[Si](C)(C)OC(C=O)c1cc2cc(OC(F)(F)F)ccc2[nH]1'
p790
(dp791
S'C=CC(O[Si](C)(C)C(C)(C)C)c1cc2cc(OC(F)(F)F)ccc2[nH]1'
p792
I-1
sS'CC(C)(C)[Si](C)(C)OC(C=O)c1cc2cc(OC(F)(F)F)ccc2[nH]1'
p793
I1
ssS'Cn1cc(CC(C(=O)O)N(C(=O)OC(C)(C)C)C(CO)c2ccccc2)c2ccccc21>>Cn1cc(CC2C(=O)OCC(c3ccccc3)N2C(=O)OC(C)(C)C)c2ccccc21'
p794
(dp795
S'Cn1cc(CC2C(=O)OCC(c3ccccc3)N2C(=O)OC(C)(C)C)c2ccccc21'
p796
I1
sS'Cn1cc(CC(C(=O)O)N(C(=O)OC(C)(C)C)C(CO)c2ccccc2)c2ccccc21'
p797
I-1
ssS'O=C(O)Cc1cccnc1>>O=C(Cl)Cc1cccnc1'
p798
(dp799
S'O=C(O)Cc1cccnc1'
p800
I-1
sS'O=C(Cl)Cc1cccnc1'
p801
I1
ssS'N[C@H](Cc1c[nH]c2ccccc12)C(=O)O>>O=C(O)C(=O)Cc1c[nH]c2ccccc12'
p802
(dp803
S'O=C(O)C(=O)Cc1c[nH]c2ccccc12'
p804
I1
sS'N[C@H](Cc1c[nH]c2ccccc12)C(=O)O'
p805
I-1
ssS'CCOC(=O)c1cc2ccccc2n1S(=O)(=O)c1ccccc1>>O=S(=O)(c1ccccc1)n1c(CO)cc2ccccc21'
p806
(dp807
S'CCOC(=O)c1cc2ccccc2n1S(=O)(=O)c1ccccc1'
p808
I-1
sS'O=S(=O)(c1ccccc1)n1c(CO)cc2ccccc21'
p809
I1
ssS'CCOC(=O)CC#Cc1ccccc1N>>CCOC(=O)Cc1cc2ccccc2[nH]1'
p810
(dp811
S'CCOC(=O)CC#Cc1ccccc1N'
p812
I-1
sS'CCOC(=O)Cc1cc2ccccc2[nH]1'
p813
I1
ssS'COC(=O)CC(=O)[O-].O=C(Cc1ccccc1[N+](=O)[O-])n1ccnc1>>COC(=O)CC(=O)Cc1ccccc1[N+](=O)[O-]'
p814
(dp815
S'COC(=O)CC(=O)[O-]'
p816
I-1
sS'O=C(Cc1ccccc1[N+](=O)[O-])n1ccnc1'
p817
I-1
sS'COC(=O)CC(=O)Cc1ccccc1[N+](=O)[O-]'
p818
I1
ssS'O=C(c1cccnc1)C(O)c1cc2cc(OC(F)(F)F)ccc2[nH]1>>OC(Cc1cccnc1)c1cc2cc(OC(F)(F)F)ccc2[nH]1'
p819
(dp820
g658
I1
sg135
I-1
ssS'CC(C)(C)OC(=O)NCCCCCBr.O=C1[N-]C(=O)c2ccccc21>>CC(C)(C)OC(=O)NCCCCCN1C(=O)c2ccccc2C1=O'
p821
(dp822
S'O=C1[N-]C(=O)c2ccccc21'
p823
I-1
sS'CC(C)(C)OC(=O)NCCCCCBr'
p824
I-1
sg217
I1
ssS'N[C@@H](Cc1cc2ccccc2[nH]1)C(=O)OCc1ccccc1.O=C(Cl)CCl>>O=C(CCl)N[C@@H](Cc1cc2ccccc2[nH]1)C(=O)OCc1ccccc1'
p825
(dp826
S'O=C(CCl)N[C@@H](Cc1cc2ccccc2[nH]1)C(=O)OCc1ccccc1'
p827
I1
sS'O=C(Cl)CCl'
p828
I-1
sS'N[C@@H](Cc1cc2ccccc2[nH]1)C(=O)OCc1ccccc1'
p829
I-1
ssS'CCOC(=O)n1c(CC#N)cc2ccccc21>>N#CCc1cc2ccccc2[nH]1'
p830
(dp831
S'CCOC(=O)n1c(CC#N)cc2ccccc21'
p832
I-1
sg535
I1
ssS'CCOC(=O)C(N)Cc1c[nH]c2ccccc12.O=C(Cl)OC(Cl)(Cl)Cl>>CCOC(=O)C(Cc1c[nH]c2ccccc12)N=C=O'
p833
(dp834
S'O=C(Cl)OC(Cl)(Cl)Cl'
p835
I-1
sS'CCOC(=O)C(Cc1c[nH]c2ccccc12)N=C=O'
p836
I1
sS'CCOC(=O)C(N)Cc1c[nH]c2ccccc12'
p837
I-1
ssS'CC(C)(C)[Si](C)(C)Cl.COC(=O)C(O)c1cc2cc(OC(F)(F)F)ccc2[nH]1>>COC(=O)C(O[Si](C)(C)C(C)(C)C)c1cc2cc(OC(F)(F)F)ccc2[nH]1'
p838
(dp839
S'COC(=O)C(O)c1cc2cc(OC(F)(F)F)ccc2[nH]1'
p840
I-1
sS'COC(=O)C(O[Si](C)(C)C(C)(C)C)c1cc2cc(OC(F)(F)F)ccc2[nH]1'
p841
I1
sS'CC(C)(C)[Si](C)(C)Cl'
p842
I-1
ssS'CCOC(=O)C(Cc1cc2ccccc2[nH]1)NC(=O)OCc1ccccc1>>O=C(NC(Cc1cc2ccccc2[nH]1)C(=O)O)OCc1ccccc1'
p843
(dp844
g580
I1
sS'CCOC(=O)C(Cc1cc2ccccc2[nH]1)NC(=O)OCc1ccccc1'
p845
I-1
ssS'CCOC(=O)Cc1cccnc1.CNOC>>CON(C)C(=O)Cc1cccnc1'
p846
(dp847
S'CCOC(=O)Cc1cccnc1'
p848
I-1
sS'CNOC'
p849
I-1
sS'CON(C)C(=O)Cc1cccnc1'
p850
I1
ssS'CCOC(=O)CP(=O)(OCC)OCC.O=CC1Cc2ccccc2N1C(=O)OCc1ccccc1>>CCOC(=O)C=CC1Cc2ccccc2N1C(=O)OCc1ccccc1'
p851
(dp852
S'CCOC(=O)CP(=O)(OCC)OCC'
p853
I-1
sS'O=CC1Cc2ccccc2N1C(=O)OCc1ccccc1'
p854
I-1
sS'CCOC(=O)C=CC1Cc2ccccc2N1C(=O)OCc1ccccc1'
p855
I1
ssS'CC(=O)Cl.O=C(c1cccnc1)C(O)c1cc2cc(OC(F)(F)F)ccc2[nH]1>>CC(=O)OC(C(=O)c1cccnc1)c1cc2cc(OC(F)(F)F)ccc2[nH]1'
p856
(dp857
S'CC(=O)OC(C(=O)c1cccnc1)c1cc2cc(OC(F)(F)F)ccc2[nH]1'
p858
I1
sS'CC(=O)Cl'
p859
I-1
sS'O=C(c1cccnc1)C(O)c1cc2cc(OC(F)(F)F)ccc2[nH]1'
p860
I-1
ssS'Brc1ccc2cc[nH]c2c1>>CN(C)Cc1c[nH]c2cc(Br)ccc12'
p861
(dp862
S'Brc1ccc2cc[nH]c2c1'
p863
I-1
sS'CN(C)Cc1c[nH]c2cc(Br)ccc12'
p864
I1
ssS'COC(=O)C(Cc1cn(C)c2ccccc12)N(C(=O)OC(C)(C)C)C(CO)c1ccccc1>>Cn1cc(CC2C(=O)OCC(c3ccccc3)N2C(=O)OC(C)(C)C)c2ccccc21'
p865
(dp866
g796
I1
sS'COC(=O)C(Cc1cn(C)c2ccccc12)N(C(=O)OC(C)(C)C)C(CO)c1ccccc1'
p867
I-1
ssS'C#Cc1cc(OC(F)(F)F)ccc1NS(C)(=O)=O>>CS(=O)(=O)n1ccc2cc(OC(F)(F)F)ccc21'
p868
(dp869
S'CS(=O)(=O)n1ccc2cc(OC(F)(F)F)ccc21'
p870
I1
sS'C#Cc1cc(OC(F)(F)F)ccc1NS(C)(=O)=O'
p871
I-1
ssS'C=C(C)OC(C)=O.Nc1ccccc1[N+](=O)[O-]>>CC(=O)Cc1ccccc1[N+](=O)[O-]'
p872
(dp873
S'C=C(C)OC(C)=O'
p874
I-1
sS'Nc1ccccc1[N+](=O)[O-]'
p875
I-1
sS'CC(=O)Cc1ccccc1[N+](=O)[O-]'
p876
I1
ssS'CCOC(=O)Cc1cc2ccccc2[nH]1>>O=C(O)Cc1cc2ccccc2[nH]1'
p877
(dp878
S'O=C(O)Cc1cc2ccccc2[nH]1'
p879
I1
sS'CCOC(=O)Cc1cc2ccccc2[nH]1'
p880
I-1
ssS'COC(=O)CCNC(=O)OC(C)(C)C.Cc1ccccc1N[Si](C)(C)C>>CC(C)(C)OC(=O)NCCc1cc2ccccc2[nH]1'
p881
(dp882
S'Cc1ccccc1N[Si](C)(C)C'
p883
I-1
sS'CC(C)(C)OC(=O)NCCc1cc2ccccc2[nH]1'
p884
I1
sS'COC(=O)CCNC(=O)OC(C)(C)C'
p885
I-1
ssS'COC(=O)C(Cc1c[nH]c2ccccc12)NS(=O)C(C)(C)C>>CC(C)(C)S(=O)NC(Cc1c[nH]c2ccccc12)C(=O)O'
p886
(dp887
g404
I1
sS'COC(=O)C(Cc1c[nH]c2ccccc12)NS(=O)C(C)(C)C'
p888
I-1
ssS'COC(=O)[C@H](Cc1cc2ccccc2[nH]1)NC(=O)C(F)(F)F>>N[C@@H](Cc1cc2ccccc2[nH]1)C(=O)O'
p889
(dp890
g239
I1
sg212
I-1
ssS'CC(C)(C)[Si](C)(C)Cl.Cc1ccc(S(=O)(=O)n2c(CC(O)c3cccnc3)cc3cc(OC(F)(F)F)ccc32)cc1>>Cc1ccc(S(=O)(=O)n2c(CC(O[Si](C)(C)C(C)(C)C)c3cccnc3)cc3cc(OC(F)(F)F)ccc32)cc1'
p891
(dp892
S'Cc1ccc(S(=O)(=O)n2c(CC(O)c3cccnc3)cc3cc(OC(F)(F)F)ccc32)cc1'
p893
I-1
sg440
I1
sS'CC(C)(C)[Si](C)(C)Cl'
p894
I-1
ssS'COC(=O)N(C)C(=O)C(CC1C(=O)Nc2ccccc21)NC(=O)OCc1ccccc1>>COC(=O)N(C)C(=O)C(N)CC1C(=O)Nc2ccccc21'
p895
(dp896
S'COC(=O)N(C)C(=O)C(N)CC1C(=O)Nc2ccccc21'
p897
I1
sS'COC(=O)N(C)C(=O)C(CC1C(=O)Nc2ccccc21)NC(=O)OCc1ccccc1'
p898
I-1
ssS'OCCc1cc2ccccc2[nH]1>>BrCCc1cc2ccccc2[nH]1'
p899
(dp900
S'BrCCc1cc2ccccc2[nH]1'
p901
I1
sS'OCCc1cc2ccccc2[nH]1'
p902
I-1
ssS'COC(=O)C=O.FC(F)(F)Oc1ccc2[nH]ccc2c1>>COC(=O)C(O)c1cc2cc(OC(F)(F)F)ccc2[nH]1'
p903
(dp904
S'COC(=O)C=O'
p905
I-1
sS'COC(=O)C(O)c1cc2cc(OC(F)(F)F)ccc2[nH]1'
p906
I1
sS'FC(F)(F)Oc1ccc2[nH]ccc2c1'
p907
I-1
ssS'CCOC(=O)C(N)Cc1c[nH]c2ccccc12.O=C(OC(Cl)(Cl)Cl)OC(Cl)(Cl)Cl>>CCOC(=O)C(Cc1c[nH]c2ccccc12)N=C=O'
p908
(dp909
S'O=C(OC(Cl)(Cl)Cl)OC(Cl)(Cl)Cl'
p910
I-1
sg836
I1
sS'CCOC(=O)C(N)Cc1c[nH]c2ccccc12'
p911
I-1
ssS'Nc1ccccc1I.O=S(=O)(Cl)c1ccccc1>>O=S(=O)(Nc1ccccc1I)c1ccccc1'
p912
(dp913
S'O=S(=O)(Nc1ccccc1I)c1ccccc1'
p914
I1
sS'Nc1ccccc1I'
p915
I-1
sS'O=S(=O)(Cl)c1ccccc1'
p916
I-1
ssS'CC(C)(C)OC(=O)C(N)Cc1c[nH]c2ccccc12.CCO>>CCOC(=O)C(N)Cc1c[nH]c2ccccc12'
p917
(dp918
S'CC(C)(C)OC(=O)C(N)Cc1c[nH]c2ccccc12'
p919
I-1
sS'CCO'
p920
I-1
sg391
I1
ssS'CC(C)(C)OC(=O)NCCCCCN.CCOC(=O)C(F)(F)F>>CC(C)(C)OC(=O)NCCCCCNC(=O)C(F)(F)F'
p921
(dp922
S'CC(C)(C)OC(=O)NCCCCCN'
p923
I-1
sS'CCOC(=O)C(F)(F)F'
p924
I-1
sg139
I1
ssS'NC(=O)N[C@H](Cc1c[nH]c2ccccc12)C(=O)O>>N[C@H](Cc1c[nH]c2ccccc12)C(=O)O'
p925
(dp926
g805
I1
sg550
I-1
ssS'BrCc1cc2ccccc2[nH]1.CCOC(=O)CN=C(c1ccccc1)c1ccccc1>>CCOC(=O)C(Cc1cc2ccccc2[nH]1)N=C(c1ccccc1)c1ccccc1'
p927
(dp928
S'CCOC(=O)CN=C(c1ccccc1)c1ccccc1'
p929
I-1
sg515
I1
sS'BrCc1cc2ccccc2[nH]1'
p930
I-1
ssS'COC(=O)C(=Cc1c[nH]c2ccccc12)NC(=O)OC(C)(C)C>>COC(=O)C(Cc1c[nH]c2ccccc12)NC(=O)OC(C)(C)C'
p931
(dp932
S'COC(=O)C(Cc1c[nH]c2ccccc12)NC(=O)OC(C)(C)C'
p933
I1
sS'COC(=O)C(=Cc1c[nH]c2ccccc12)NC(=O)OC(C)(C)C'
p934
I-1
ssS'Cn1cc(CC(NC(=O)OC(C)(C)C)C(=O)OCc2ccccc2)c2ccccc21.NCCCCCNc1nc2ccccc2[n+]([O-])n1>>Cn1cc(CC(NC(=O)OC(C)(C)C)C(=O)NCCCCCNc2nc3ccccc3[n+]([O-])n2)c2ccccc21'
p935
(dp936
S'Cn1cc(CC(NC(=O)OC(C)(C)C)C(=O)NCCCCCNc2nc3ccccc3[n+]([O-])n2)c2ccccc21'
p937
I1
sS'Cn1cc(CC(NC(=O)OC(C)(C)C)C(=O)OCc2ccccc2)c2ccccc21'
p938
I-1
sS'NCCCCCNc1nc2ccccc2[n+]([O-])n1'
p939
I-1
ssS'COC(=O)[C@H](Cc1cc2ccccc2[nH]1)NC(C)=O>>CC(=O)N[C@@H](Cc1cc2ccccc2[nH]1)C(=O)O'
p940
(dp941
S'COC(=O)[C@H](Cc1cc2ccccc2[nH]1)NC(C)=O'
p942
I-1
sS'CC(=O)N[C@@H](Cc1cc2ccccc2[nH]1)C(=O)O'
p943
I1
ssS'C=CCc1cccnc1>>OC(CBr)Cc1cccnc1'
p944
(dp945
S'OC(CBr)Cc1cccnc1'
p946
I1
sS'C=CCc1cccnc1'
p947
I-1
ssS'COC(=O)C(N)Cc1cn(C)c2ccccc12.OCc1ccccc1>>COC(=O)C(Cc1cn(C)c2ccccc12)NC(=O)c1ccccc1'
p948
(dp949
S'OCc1ccccc1'
p950
I-1
sS'COC(=O)C(N)Cc1cn(C)c2ccccc12'
p951
I-1
sS'COC(=O)C(Cc1cn(C)c2ccccc12)NC(=O)c1ccccc1'
p952
I1
ssS'CCOC(=O)C(CC#Cc1ccccc1N)NC(=O)OC(C)(C)C>>CCOC(=O)C(Cc1cc2ccccc2[nH]1)NC(=O)OC(C)(C)C'
p953
(dp954
S'CCOC(=O)C(CC#Cc1ccccc1N)NC(=O)OC(C)(C)C'
p955
I-1
sS'CCOC(=O)C(Cc1cc2ccccc2[nH]1)NC(=O)OC(C)(C)C'
p956
I1
ssS'CC(=O)Cl.OC(c1cccnc1)C(O)c1cc2cc(OC(F)(F)F)ccc2[nH]1>>CC(=O)OC(c1cc2cc(OC(F)(F)F)ccc2[nH]1)C(O)c1cccnc1'
p957
(dp958
S'CC(=O)OC(c1cc2cc(OC(F)(F)F)ccc2[nH]1)C(O)c1cccnc1'
p959
I1
sS'CC(=O)Cl'
p960
I-1
sS'OC(c1cccnc1)C(O)c1cc2cc(OC(F)(F)F)ccc2[nH]1'
p961
I-1
ssS'N[C@@H](CO)C(=O)O.c1ccc2[nH]ccc2c1>>N[C@@H](Cc1c[nH]c2ccccc12)C(=O)O'
p962
(dp963
S'N[C@@H](Cc1c[nH]c2ccccc12)C(=O)O'
p964
I1
sS'c1ccc2[nH]ccc2c1'
p965
I-1
sS'N[C@@H](CO)C(=O)O'
p966
I-1
ssS'CCOC(=O)C(Cc1c[nH]c2cc(Br)ccc12)(NC=O)C(=O)OCC>>NC(Cc1c[nH]c2cc(Br)ccc12)C(=O)O'
p967
(dp968
S'NC(Cc1c[nH]c2cc(Br)ccc12)C(=O)O'
p969
I1
sS'CCOC(=O)C(Cc1c[nH]c2cc(Br)ccc12)(NC=O)C(=O)OCC'
p970
I-1
ssS'FC(F)(F)Oc1ccc2[nH]ccc2c1.O=C(OC(=O)C(F)(F)F)C(F)(F)F>>O=C(c1c[nH]c2ccc(OC(F)(F)F)cc12)C(F)(F)F'
p971
(dp972
S'FC(F)(F)Oc1ccc2[nH]ccc2c1'
p973
I-1
sS'O=C(OC(=O)C(F)(F)F)C(F)(F)F'
p974
I-1
sS'O=C(c1c[nH]c2ccc(OC(F)(F)F)cc12)C(F)(F)F'
p975
I1
ssS'O=C(O)Cc1cc2ccccc2[nH]1>>NC(=O)Cc1cc2ccccc2[nH]1'
p976
(dp977
S'O=C(O)Cc1cc2ccccc2[nH]1'
p978
I-1
sg48
I1
ssS'COC(=O)NC(Cc1cc2ccccc2[nH]1)C(=O)OC>>NC(Cc1cc2ccccc2[nH]1)C(=O)O'
p979
(dp980
S'COC(=O)NC(Cc1cc2ccccc2[nH]1)C(=O)OC'
p981
I-1
sg61
I1
ssS'CC(C)(C)OC(=O)OC(=O)OC(C)(C)C.O=[N+]([O-])CCc1cc2ccccc2[nH]1>>CC(C)(C)OC(=O)NCCc1cc2ccccc2[nH]1'
p982
(dp983
g884
I1
sS'O=[N+]([O-])CCc1cc2ccccc2[nH]1'
p984
I-1
sS'CC(C)(C)OC(=O)OC(=O)OC(C)(C)C'
p985
I-1
ssS'CI.O=C1CNC(=O)N1>>CN1C(=O)CNC1=O'
p986
(dp987
S'O=C1CNC(=O)N1'
p988
I-1
sS'CI'
p989
I-1
sS'CN1C(=O)CNC1=O'
p990
I1
ssS'O=C(NC(Cc1c[nH]c2ccccc12)C(=O)O)OCc1ccccc1.OCc1ccccc1>>O=C(NC(Cc1c[nH]c2ccccc12)C(=O)OCc1ccccc1)OCc1ccccc1'
p991
(dp992
S'OCc1ccccc1'
p993
I-1
sS'O=C(NC(Cc1c[nH]c2ccccc12)C(=O)OCc1ccccc1)OCc1ccccc1'
p994
I1
sS'O=C(NC(Cc1c[nH]c2ccccc12)C(=O)O)OCc1ccccc1'
p995
I-1
ssS'N#CCC#Cc1ccccc1N>>N#CCc1cc2ccccc2[nH]1'
p996
(dp997
g535
I1
sS'N#CCC#Cc1ccccc1N'
p998
I-1
ssS'C#CCC(NC(=O)OC(C)(C)C)C(=O)O.OCc1ccccc1>>C#CCC(NC(=O)OC(C)(C)C)C(=O)OCc1ccccc1'
p999
(dp1000
S'OCc1ccccc1'
p1001
I-1
sg605
I1
sS'C#CCC(NC(=O)OC(C)(C)C)C(=O)O'
p1002
I-1
ssS'CO.Cn1cc(CC(NC(=O)OC(C)(C)C)C(=O)O)c2ccccc21>>COC(=O)C(Cc1cn(C)c2ccccc12)NC(=O)OC(C)(C)C'
p1003
(dp1004
S'Cn1cc(CC(NC(=O)OC(C)(C)C)C(=O)O)c2ccccc21'
p1005
I-1
sS'CO'
p1006
I-1
sg95
I1
ssS'COC(=O)N[C@@H](Cc1cc2ccccc2[nH]1)C(=O)OCc1ccccc1>>COC(=O)N[C@@H](Cc1cc2ccccc2[nH]1)C(=O)O'
p1007
(dp1008
g240
I1
sg157
I-1
ssS'CC(=O)Cl.CC(C)(O)CO>>CC(=O)OC(C)(C)CO'
p1009
(dp1010
S'CC(C)(O)CO'
p1011
I-1
sS'CC(=O)Cl'
p1012
I-1
sS'CC(=O)OC(C)(C)CO'
p1013
I1
ssS'BrCCc1cc2ccccc2[nH]1>>NCCc1cc2ccccc2[nH]1'
p1014
(dp1015
S'BrCCc1cc2ccccc2[nH]1'
p1016
I-1
sg78
I1
ssS'C#CC[C@H](N)C(=O)OC.COC(=O)Cl>>C#CC[C@H](NC(=O)OC)C(=O)OC'
p1017
(dp1018
S'C#CC[C@H](N)C(=O)OC'
p1019
I-1
sS'C#CC[C@H](NC(=O)OC)C(=O)OC'
p1020
I1
sS'COC(=O)Cl'
p1021
I-1
ssS'C#CCCO.Nc1ccccc1I>>Nc1ccccc1C#CCCO'
p1022
(dp1023
S'Nc1ccccc1C#CCCO'
p1024
I1
sS'C#CCCO'
p1025
I-1
sS'Nc1ccccc1I'
p1026
I-1
ssS'Cn1cc(CC(NC(=O)OC(C)(C)C)C(=O)OCc2ccccc2)c2ccccc21>>Cn1cc(CC(N)C(=O)OCc2ccccc2)c2ccccc21'
p1027
(dp1028
S'Cn1cc(CC(NC(=O)OC(C)(C)C)C(=O)OCc2ccccc2)c2ccccc21'
p1029
I-1
sg765
I1
ssS'CNC(=O)NC(Cc1c[nH]c2ccccc12)C(=O)OC>>CN1C(=O)NC(Cc2c[nH]c3ccccc23)C1=O'
p1030
(dp1031
g625
I1
sS'CNC(=O)NC(Cc1c[nH]c2ccccc12)C(=O)OC'
p1032
I-1
ssS'CC(C)(C)OC(=O)OC(=O)OC(C)(C)C.NC(Cc1c[nH]c2ccccc12)C(=O)O>>CC(C)(C)OC(=O)NC(Cc1c[nH]c2ccccc12)C(=O)O'
p1033
(dp1034
S'CC(C)(C)OC(=O)NC(Cc1c[nH]c2ccccc12)C(=O)O'
p1035
I1
sS'NC(Cc1c[nH]c2ccccc12)C(=O)O'
p1036
I-1
sS'CC(C)(C)OC(=O)OC(=O)OC(C)(C)C'
p1037
I-1
ssS'CC(C)(C)OC(=O)ON=C(C#N)c1ccccc1.Cn1cc(CC(N)C(=O)O)c2ccccc21>>Cn1cc(CC(NC(=O)OC(C)(C)C)C(=O)O)c2ccccc21'
p1038
(dp1039
S'CC(C)(C)OC(=O)ON=C(C#N)c1ccccc1'
p1040
I-1
sS'Cn1cc(CC(N)C(=O)O)c2ccccc21'
p1041
I-1
sg176
I1
ssS'C=CCOC(=O)C(Cc1cn(C)c2ccccc12)NC(=O)OC(C)(C)C>>Cn1cc(CC(NC(=O)OC(C)(C)C)C(=O)O)c2ccccc21'
p1042
(dp1043
g176
I1
sS'C=CCOC(=O)C(Cc1cn(C)c2ccccc12)NC(=O)OC(C)(C)C'
p1044
I-1
ssS'O=[N+]([O-])C=Cc1cc2ccccc2[nH]1>>NCCc1cc2ccccc2[nH]1'
p1045
(dp1046
g653
I-1
sg78
I1
ssS'CC1c2c(c3ccc(Br)cc3n2C(=O)OC(C)(C)C)CC2C(=O)N(C)C(=O)N21>>CC1c2c(c3ccc(Br)c(Br)c3n2C(=O)OC(C)(C)C)CC2C(=O)N(C)C(=O)N21'
p1047
(dp1048
S'CC1c2c(c3ccc(Br)c(Br)c3n2C(=O)OC(C)(C)C)CC2C(=O)N(C)C(=O)N21'
p1049
I1
sS'CC1c2c(c3ccc(Br)cc3n2C(=O)OC(C)(C)C)CC2C(=O)N(C)C(=O)N21'
p1050
I-1
ssS'COC(=O)C(Cc1c[nH]c2ccccc12)NC(=O)OC(C)(C)C>>CC(C)(C)OC(=O)NC(Cc1c[nH]c2ccccc12)C(=O)O'
p1051
(dp1052
g1035
I1
sS'COC(=O)C(Cc1c[nH]c2ccccc12)NC(=O)OC(C)(C)C'
p1053
I-1
ssS'COC(=O)NC(CC#Cc1ccccc1N)C(=O)OC>>COC(=O)NC(Cc1cc2ccccc2[nH]1)C(=O)OC'
p1054
(dp1055
S'COC(=O)NC(Cc1cc2ccccc2[nH]1)C(=O)OC'
p1056
I1
sS'COC(=O)NC(CC#Cc1ccccc1N)C(=O)OC'
p1057
I-1
ssS'O=C(CCl)N[C@@H](Cc1cc2ccccc2[nH]1)C(=O)O>>N[C@@H](Cc1cc2ccccc2[nH]1)C(=O)O'
p1058
(dp1059
g239
I1
sS'O=C(CCl)N[C@@H](Cc1cc2ccccc2[nH]1)C(=O)O'
p1060
I-1
ssS'CC(C)(C)OC(=O)OC(=O)OC(C)(C)C.CCOC(=O)C(N)Cc1cc2ccccc2[nH]1>>CCOC(=O)C(Cc1cc2ccccc2[nH]1)NC(=O)OC(C)(C)C'
p1061
(dp1062
g956
I1
sS'CCOC(=O)C(N)Cc1cc2ccccc2[nH]1'
p1063
I-1
sS'CC(C)(C)OC(=O)OC(=O)OC(C)(C)C'
p1064
I-1
ssS'C[N+](=O)[O-].O=Cc1cc2ccccc2[nH]1>>O=[N+]([O-])/C=C/c1cc2ccccc2[nH]1'
p1065
(dp1066
S'O=[N+]([O-])/C=C/c1cc2ccccc2[nH]1'
p1067
I1
sS'O=Cc1cc2ccccc2[nH]1'
p1068
I-1
sS'C[N+](=O)[O-]'
p1069
I-1
ssS'CC1(C)OC(=O)CC(=O)O1.O=C(Cl)Cc1ccccc1[N+](=O)[O-]>>CC1(C)OC(=O)C(C(=O)Cc2ccccc2[N+](=O)[O-])C(=O)O1'
p1070
(dp1071
S'CC1(C)OC(=O)CC(=O)O1'
p1072
I-1
sS'CC1(C)OC(=O)C(C(=O)Cc2ccccc2[N+](=O)[O-])C(=O)O1'
p1073
I1
sS'O=C(Cl)Cc1ccccc1[N+](=O)[O-]'
p1074
I-1
ssS'O=C(c1ccccc1)c1ccccc1>>N=C(c1ccccc1)c1ccccc1'
p1075
(dp1076
S'N=C(c1ccccc1)c1ccccc1'
p1077
I1
sS'O=C(c1ccccc1)c1ccccc1'
p1078
I-1
ssS'Cn1cc(CC(N)C(=O)O)c2ccccc21.OCc1ccccc1>>Cn1cc(CC(N)C(=O)OCc2ccccc2)c2ccccc21'
p1079
(dp1080
S'OCc1ccccc1'
p1081
I-1
sS'Cn1cc(CC(N)C(=O)O)c2ccccc21'
p1082
I-1
sg765
I1
ssS'COC(=O)C(Cc1cn(C)c2ccccc12)NC(=O)OCc1ccccc1>>Cn1cc(CC(NC(=O)OCc2ccccc2)C(=O)O)c2ccccc21'
p1083
(dp1084
g190
I1
sS'COC(=O)C(Cc1cn(C)c2ccccc12)NC(=O)OCc1ccccc1'
p1085
I-1
ssS'CCOC(=O)C(Cc1cc2ccccc2[nH]1)NC(C)=O>>CC(=O)NC(Cc1cc2ccccc2[nH]1)C(=O)O'
p1086
(dp1087
g142
I1
sS'CCOC(=O)C(Cc1cc2ccccc2[nH]1)NC(C)=O'
p1088
I-1
ssS'NCCCCCN1C(=O)c2ccccc2C1=O.[O-][n+]1nc(Cl)nc2ccccc21>>O=C1c2ccccc2C(=O)N1CCCCCNc1nc2ccccc2[n+]([O-])n1'
p1089
(dp1090
S'O=C1c2ccccc2C(=O)N1CCCCCNc1nc2ccccc2[n+]([O-])n1'
p1091
I1
sS'NCCCCCN1C(=O)c2ccccc2C1=O'
p1092
I-1
sS'[O-][n+]1nc(Cl)nc2ccccc21'
p1093
I-1
ssS'C#CCC(NC(=O)OC(C)(C)C)C(=O)O.COC(C)(C)OC>>C#CCC(NC(=O)OC(C)(C)C)C(=O)OC'
p1094
(dp1095
S'COC(C)(C)OC'
p1096
I-1
sS'C#CCC(NC(=O)OC(C)(C)C)C(=O)O'
p1097
I-1
sS'C#CCC(NC(=O)OC(C)(C)C)C(=O)OC'
p1098
I1
ssS'C#CC.Nc1ccc(OC(F)(F)F)cc1I>>CC#Cc1cc(OC(F)(F)F)ccc1N'
p1099
(dp1100
S'C#CC'
p1101
I-1
sS'CC#Cc1cc(OC(F)(F)F)ccc1N'
p1102
I1
sS'Nc1ccc(OC(F)(F)F)cc1I'
p1103
I-1
ssS'CC(C)(C)OC(=O)CC(=O)Cc1ccccc1[N+](=O)[O-]>>CC(C)(C)OC(=O)Cc1cc2ccccc2[nH]1'
p1104
(dp1105
S'CC(C)(C)OC(=O)Cc1cc2ccccc2[nH]1'
p1106
I1
sS'CC(C)(C)OC(=O)CC(=O)Cc1ccccc1[N+](=O)[O-]'
p1107
I-1
ssS'N#CCc1cc2ccccc2n1S(=O)(=O)c1ccccc1>>N#CCc1cc2ccccc2[nH]1'
p1108
(dp1109
g666
I-1
sg535
I1
ssS'C#C[Si](C)(C)C>>C[Si](C)(C)C#CBr'
p1110
(dp1111
S'C[Si](C)(C)C#CBr'
p1112
I1
sS'C#C[Si](C)(C)C'
p1113
I-1
ssS'OC(CCl)Cc1cccnc1>>c1cncc(CC2CO2)c1'
p1114
(dp1115
g167
I1
sS'OC(CCl)Cc1cccnc1'
p1116
I-1
ssS'CC(C)(C)[Si](C)(C)OCC(N)c1ccccc1.COC(=O)CBr>>COC(=O)CNC(CO[Si](C)(C)C(C)(C)C)c1ccccc1'
p1117
(dp1118
S'COC(=O)CBr'
p1119
I-1
sS'CC(C)(C)[Si](C)(C)OCC(N)c1ccccc1'
p1120
I-1
sS'COC(=O)CNC(CO[Si](C)(C)C(C)(C)C)c1ccccc1'
p1121
I1
ssS'N#CCCCCCl.Nc1nc2ccccc2[n+]([O-])n1>>N#CCCCCNc1nc2ccccc2[n+]([O-])n1'
p1122
(dp1123
S'N#CCCCCCl'
p1124
I-1
sS'Nc1nc2ccccc2[n+]([O-])n1'
p1125
I-1
sS'N#CCCCCNc1nc2ccccc2[n+]([O-])n1'
p1126
I1
ssS'O=C(c1c[nH]c2ccc(OC(F)(F)F)cc12)C(F)(F)F>>O=C(O)c1c[nH]c2ccc(OC(F)(F)F)cc12'
p1127
(dp1128
S'O=C(O)c1c[nH]c2ccc(OC(F)(F)F)cc12'
p1129
I1
sS'O=C(c1c[nH]c2ccc(OC(F)(F)F)cc12)C(F)(F)F'
p1130
I-1
ssS'Cc1ccc(S(=O)(=O)Cl)cc1.Nc1ccccc1I>>Cc1ccc(S(=O)(=O)Nc2ccccc2I)cc1'
p1131
(dp1132
S'Cc1ccc(S(=O)(=O)Nc2ccccc2I)cc1'
p1133
I1
sS'Cc1ccc(S(=O)(=O)Cl)cc1'
p1134
I-1
sS'Nc1ccccc1I'
p1135
I-1
ssS'CCOC(=O)C(Cc1c[nH]c2ccccc12)NC(=O)NC>>CCOC(=O)C(Cc1c[nH]c2ccccc12)NC(=S)NC'
p1136
(dp1137
S'CCOC(=O)C(Cc1c[nH]c2ccccc12)NC(=S)NC'
p1138
I1
sS'CCOC(=O)C(Cc1c[nH]c2ccccc12)NC(=O)NC'
p1139
I-1
ssS'CN1C(=O)N/C(=C/c2c[nH]c3ccccc23)C1=O>>CN1C(=O)NC(Cc2c[nH]c3ccccc23)C1=O'
p1140
(dp1141
g625
I1
sg759
I-1
ssS'COCBr.Ic1c[nH]c2ccccc12>>COCn1cc(I)c2ccccc21'
p1142
(dp1143
S'Ic1c[nH]c2ccccc12'
p1144
I-1
sS'COCn1cc(I)c2ccccc21'
p1145
I1
sS'COCBr'
p1146
I-1
ssS'CC(=O)Cl.NC(Cc1cc2ccccc2[nH]1)C(=O)O>>CC(=O)NC(Cc1cc2ccccc2[nH]1)C(=O)O'
p1147
(dp1148
g142
I1
sS'CC(=O)Cl'
p1149
I-1
sS'NC(Cc1cc2ccccc2[nH]1)C(=O)O'
p1150
I-1
ssS'Cn1cc(CC(N)C#N)c2ccccc21>>COC(=O)C(N)Cc1cn(C)c2ccccc12'
p1151
(dp1152
g27
I1
sS'Cn1cc(CC(N)C#N)c2ccccc21'
p1153
I-1
ssS'OCc1cc2cc(OC(F)(F)F)ccc2[nH]1>>O=Cc1cc2cc(OC(F)(F)F)ccc2[nH]1'
p1154
(dp1155
S'OCc1cc2cc(OC(F)(F)F)ccc2[nH]1'
p1156
I-1
sg566
I1
ssS'O=C(NC(Cc1cc2ccccc2[nH]1)C(=O)O)OCc1ccccc1>>NC(=O)C(Cc1cc2ccccc2[nH]1)NC(=O)OCc1ccccc1'
p1157
(dp1158
S'O=C(NC(Cc1cc2ccccc2[nH]1)C(=O)O)OCc1ccccc1'
p1159
I-1
sS'NC(=O)C(Cc1cc2ccccc2[nH]1)NC(=O)OCc1ccccc1'
p1160
I1
ssS'C=O.CCOC(=O)Cc1cc(OC(F)(F)F)ccc1[N+](=O)[O-]>>C=C(C(=O)OCC)c1cc(OC(F)(F)F)ccc1[N+](=O)[O-]'
p1161
(dp1162
S'C=O'
p1163
I-1
sS'C=C(C(=O)OCC)c1cc(OC(F)(F)F)ccc1[N+](=O)[O-]'
p1164
I1
sS'CCOC(=O)Cc1cc(OC(F)(F)F)ccc1[N+](=O)[O-]'
p1165
I-1
ssS'C#CC[C@H](NC(=O)OC)C(=O)OC.Nc1ccccc1I>>COC(=O)N[C@@H](CC#Cc1ccccc1N)C(=O)OC'
p1166
(dp1167
S'COC(=O)N[C@@H](CC#Cc1ccccc1N)C(=O)OC'
p1168
I1
sS'C#CC[C@H](NC(=O)OC)C(=O)OC'
p1169
I-1
sS'Nc1ccccc1I'
p1170
I-1
ssS'Cn1cc(CC(NC(=O)OC(C)(C)C)C(=O)O)c2ccccc21.OCc1ccccc1>>Cn1cc(CC(NC(=O)OC(C)(C)C)C(=O)OCc2ccccc2)c2ccccc21'
p1171
(dp1172
S'OCc1ccccc1'
p1173
I-1
sg38
I1
sS'Cn1cc(CC(NC(=O)OC(C)(C)C)C(=O)O)c2ccccc21'
p1174
I-1
ssS'CCOC(=O)CC(=O)OCc1ccccc1>>CCOC(=O)C(=NO)C(=O)OCc1ccccc1'
p1175
(dp1176
S'CCOC(=O)CC(=O)OCc1ccccc1'
p1177
I-1
sg286
I1
ssS'NC(Cc1c[nH]c2ccccc12)C(=O)O>>COC(=O)C(N)Cc1c[nH]c2ccccc12'
p1178
(dp1179
S'NC(Cc1c[nH]c2ccccc12)C(=O)O'
p1180
I-1
sS'COC(=O)C(N)Cc1c[nH]c2ccccc12'
p1181
I1
ssS'CCOC(=O)Cc1cc2ccccc2[nH]1>>OCCc1cc2ccccc2[nH]1'
p1182
(dp1183
S'OCCc1cc2ccccc2[nH]1'
p1184
I1
sS'CCOC(=O)Cc1cc2ccccc2[nH]1'
p1185
I-1
ssS'C#CC[C@H](NC(=O)OC(C)(C)C)C(=O)OCc1ccccc1.O=[N+]([O-])c1ccccc1I>>CC(C)(C)OC(=O)N[C@@H](CC#Cc1ccccc1[N+](=O)[O-])C(=O)OCc1ccccc1'
p1186
(dp1187
S'C#CC[C@H](NC(=O)OC(C)(C)C)C(=O)OCc1ccccc1'
p1188
I-1
sS'CC(C)(C)OC(=O)N[C@@H](CC#Cc1ccccc1[N+](=O)[O-])C(=O)OCc1ccccc1'
p1189
I1
sS'O=[N+]([O-])c1ccccc1I'
p1190
I-1
ssS'CC(C)(C)OC(=O)CC(=O)Cc1ccccc1[N+](=O)[O-]>>O=C(O)CC(=O)Cc1ccccc1[N+](=O)[O-]'
p1191
(dp1192
S'CC(C)(C)OC(=O)CC(=O)Cc1ccccc1[N+](=O)[O-]'
p1193
I-1
sS'O=C(O)CC(=O)Cc1ccccc1[N+](=O)[O-]'
p1194
I1
ssS'CS(=O)(=O)n1ccc2cc(OC(F)(F)F)ccc21>>FC(F)(F)Oc1ccc2[nH]ccc2c1'
p1195
(dp1196
S'FC(F)(F)Oc1ccc2[nH]ccc2c1'
p1197
I1
sg870
I-1
ssS'N#CCc1cccc(OC(F)(F)F)c1>>NCCc1cccc(OC(F)(F)F)c1'
p1198
(dp1199
S'N#CCc1cccc(OC(F)(F)F)c1'
p1200
I-1
sS'NCCc1cccc(OC(F)(F)F)c1'
p1201
I1
ssS'CC=O.NC(Cc1c[nH]c2cc(Br)ccc12)C(=O)O>>CC1NC(C(=O)O)Cc2c1[nH]c1cc(Br)ccc21'
p1202
(dp1203
S'NC(Cc1c[nH]c2cc(Br)ccc12)C(=O)O'
p1204
I-1
sS'CC=O'
p1205
I-1
sS'CC1NC(C(=O)O)Cc2c1[nH]c1cc(Br)ccc21'
p1206
I1
ssS'Cc1ccc(S(=O)(=O)N2C(=O)N(C)C(=O)C2CC2CNc3ccccc32)cc1>>CN1C(=O)NC(CC2CNc3ccccc32)C1=O'
p1207
(dp1208
S'Cc1ccc(S(=O)(=O)N2C(=O)N(C)C(=O)C2CC2CNc3ccccc32)cc1'
p1209
I-1
sS'CN1C(=O)NC(CC2CNc3ccccc32)C1=O'
p1210
I1
ssS'O=C(O)c1cc2cc(OC(F)(F)F)ccc2[nH]1>>OCc1cc2cc(OC(F)(F)F)ccc2[nH]1'
p1211
(dp1212
g1156
I1
sS'O=C(O)c1cc2cc(OC(F)(F)F)ccc2[nH]1'
p1213
I-1
ssS'C=C(C)C.NC(Cc1c[nH]c2ccccc12)C(=O)O>>CC(C)(C)OC(=O)C(N)Cc1c[nH]c2ccccc12'
p1214
(dp1215
S'CC(C)(C)OC(=O)C(N)Cc1c[nH]c2ccccc12'
p1216
I1
sS'C=C(C)C'
p1217
I-1
sS'NC(Cc1c[nH]c2ccccc12)C(=O)O'
p1218
I-1
ssS'C#CCCN1C(=O)c2ccccc2C1=O.O=S(=O)(Nc1ccccc1I)c1ccccc1>>O=C1c2ccccc2C(=O)N1CCC#Cc1ccccc1NS(=O)(=O)c1ccccc1'
p1219
(dp1220
S'O=S(=O)(Nc1ccccc1I)c1ccccc1'
p1221
I-1
sS'O=C1c2ccccc2C(=O)N1CCC#Cc1ccccc1NS(=O)(=O)c1ccccc1'
p1222
I1
sS'C#CCCN1C(=O)c2ccccc2C1=O'
p1223
I-1
ssS'OC(Cc1cc2cc(OC(F)(F)F)ccc2[nH]1)c1cccnc1>>O=C(Cc1cc2cc(OC(F)(F)F)ccc2[nH]1)c1cccnc1'
p1224
(dp1225
S'O=C(Cc1cc2cc(OC(F)(F)F)ccc2[nH]1)c1cccnc1'
p1226
I1
sS'OC(Cc1cc2cc(OC(F)(F)F)ccc2[nH]1)c1cccnc1'
p1227
I-1
ssS'FC(F)(F)Oc1ccc2[nH]ccc2c1>>CN(C)Cc1c[nH]c2ccc(OC(F)(F)F)cc12'
p1228
(dp1229
S'CN(C)Cc1c[nH]c2ccc(OC(F)(F)F)cc12'
p1230
I1
sS'FC(F)(F)Oc1ccc2[nH]ccc2c1'
p1231
I-1
ssS'Brc1cccnc1.C[Sn](C)(C)Cl>>C[Sn](C)(C)c1cccnc1'
p1232
(dp1233
S'C[Sn](C)(C)Cl'
p1234
I-1
sg468
I1
sS'Brc1cccnc1'
p1235
I-1
ssS'Cn1ccc2ccccc21>>Cn1cc(I)c2ccccc21'
p1236
(dp1237
S'Cn1cc(I)c2ccccc21'
p1238
I1
sS'Cn1ccc2ccccc21'
p1239
I-1
ssS'NC(Cc1cc2ccccc2[nH]1)C(=O)O.O=C(Cl)CCl>>O=C(CCl)NC(Cc1cc2ccccc2[nH]1)C(=O)O'
p1240
(dp1241
S'O=C(Cl)CCl'
p1242
I-1
sg679
I1
sS'NC(Cc1cc2ccccc2[nH]1)C(=O)O'
p1243
I-1
ssS'CCOC(=O)C(Cc1c[nH]c2ccccc12)NC(=O)OC(C)(C)C.CI>>CCOC(=O)C(Cc1cn(C)c2ccccc12)NC(=O)OC(C)(C)C'
p1244
(dp1245
S'CCOC(=O)C(Cc1c[nH]c2ccccc12)NC(=O)OC(C)(C)C'
p1246
I-1
sS'CI'
p1247
I-1
sS'CCOC(=O)C(Cc1cn(C)c2ccccc12)NC(=O)OC(C)(C)C'
p1248
I1
ssS'O=S(=O)(c1ccccc1)n1c(CO)cc2ccccc21>>O=S(=O)(c1ccccc1)n1c(CBr)cc2ccccc21'
p1249
(dp1250
g809
I-1
sS'O=S(=O)(c1ccccc1)n1c(CBr)cc2ccccc21'
p1251
I1
ssS'CC1NC(C(=O)O)Cc2c1[nH]c1cc(Br)ccc21.CO>>COC(=O)C1Cc2c([nH]c3cc(Br)ccc23)C(C)N1'
p1252
(dp1253
S'CC1NC(C(=O)O)Cc2c1[nH]c1cc(Br)ccc21'
p1254
I-1
sS'CO'
p1255
I-1
sS'COC(=O)C1Cc2c([nH]c3cc(Br)ccc23)C(C)N1'
p1256
I1
ssS'CCOC(=O)C(N)Cc1c[nH]c2ccccc12.S=C=S>>CCOC(=O)C(Cc1c[nH]c2ccccc12)N=C=S'
p1257
(dp1258
S'CCOC(=O)C(Cc1c[nH]c2ccccc12)N=C=S'
p1259
I1
sS'S=C=S'
p1260
I-1
sS'CCOC(=O)C(N)Cc1c[nH]c2ccccc12'
p1261
I-1
ssS'COC(=O)C(N)Cc1c[nH]c2ccccc12.COC(=O)Cl>>COC(=O)NC(Cc1c[nH]c2ccccc12)C(=O)OC'
p1262
(dp1263
S'COC(=O)NC(Cc1c[nH]c2ccccc12)C(=O)OC'
p1264
I1
sS'COC(=O)Cl'
p1265
I-1
sS'COC(=O)C(N)Cc1c[nH]c2ccccc12'
p1266
I-1
ssS'CC(C)(C)OC(=O)NCCCCCO.Cc1ccc(S(=O)(=O)Cl)cc1>>Cc1ccc(S(=O)(=O)OCCCCCNC(=O)OC(C)(C)C)cc1'
p1267
(dp1268
S'CC(C)(C)OC(=O)NCCCCCO'
p1269
I-1
sS'Cc1ccc(S(=O)(=O)OCCCCCNC(=O)OC(C)(C)C)cc1'
p1270
I1
sS'Cc1ccc(S(=O)(=O)Cl)cc1'
p1271
I-1
ssS'CN1C(=O)CNC1=O.O=Cc1c[nH]c2ccccc12>>CN1C(=O)N/C(=C\\c2c[nH]c3ccccc23)C1=O'
p1272
(dp1273
S'O=Cc1c[nH]c2ccccc12'
p1274
I-1
sS'CN1C(=O)N/C(=C\\c2c[nH]c3ccccc23)C1=O'
p1275
I1
sS'CN1C(=O)CNC1=O'
p1276
I-1
ssS'C[Si](C)(C)N[Si](C)(C)C.Cc1cc(OC(F)(F)F)ccc1N>>Cc1cc(OC(F)(F)F)ccc1N[Si](C)(C)C'
p1277
(dp1278
S'C[Si](C)(C)N[Si](C)(C)C'
p1279
I-1
sS'Cc1cc(OC(F)(F)F)ccc1N[Si](C)(C)C'
p1280
I1
sS'Cc1cc(OC(F)(F)F)ccc1N'
p1281
I-1
ssS'Cn1cc(CC(C=O)NC(=O)OC(C)(C)C)c2ccccc21>>Cn1cc(CC(CO)NC(=O)OC(C)(C)C)c2ccccc21'
p1282
(dp1283
S'Cn1cc(CC(C=O)NC(=O)OC(C)(C)C)c2ccccc21'
p1284
I-1
sg400
I1
ssS'Cc1ccc(S(=O)(=O)N2CCc3cc(OC(F)(F)F)ccc32)cc1>>FC(F)(F)Oc1ccc2c(c1)CCN2'
p1285
(dp1286
S'FC(F)(F)Oc1ccc2c(c1)CCN2'
p1287
I1
sS'Cc1ccc(S(=O)(=O)N2CCc3cc(OC(F)(F)F)ccc32)cc1'
p1288
I-1
ssS'C#CCC#N.Nc1ccccc1I>>N#CCC#Cc1ccccc1N'
p1289
(dp1290
S'C#CCC#N'
p1291
I-1
sS'Nc1ccccc1I'
p1292
I-1
sg998
I1
ssS'O=C(NC(Cc1cc2ccccc2[nH]1)C(=O)O)OCc1ccccc1>>NC(Cc1cc2ccccc2[nH]1)C(=O)O'
p1293
(dp1294
g580
I-1
sg61
I1
ssS'CC1c2[nH]c3cc(Br)ccc3c2CC2C(=O)N(C)C(=O)N21>>CC1c2[nH]c3cc(Br)ccc3c2CC2C(=O)N(C)C(=S)N21'
p1295
(dp1296
g225
I-1
sS'CC1c2[nH]c3cc(Br)ccc3c2CC2C(=O)N(C)C(=S)N21'
p1297
I1
ssS'Nc1nc2ccccc2[n+]([O-])n1>>[O-][n+]1nc(O)nc2ccccc21'
p1298
(dp1299
S'[O-][n+]1nc(O)nc2ccccc21'
p1300
I1
sS'Nc1nc2ccccc2[n+]([O-])n1'
p1301
I-1
ssS'COC(=O)NC(Cc1c[nH]c2ccccc12)C(=O)OC>>COC(=O)NC(Cc1c[nH]c2ccccc12)C(=O)O'
p1302
(dp1303
g1264
I-1
sS'COC(=O)NC(Cc1c[nH]c2ccccc12)C(=O)O'
p1304
I1
ssS'CO.Cn1cc(CC(N)C(=O)O)c2ccccc21>>COC(=O)C(N)Cc1cn(C)c2ccccc12'
p1305
(dp1306
g246
I1
sS'Cn1cc(CC(N)C(=O)O)c2ccccc21'
p1307
I-1
sS'CO'
p1308
I-1
ssS'CCOC(=O)C(Cc1cc2ccccc2[nH]1)NC(C)=O>>NC(Cc1cc2ccccc2[nH]1)C(=O)O'
p1309
(dp1310
S'CCOC(=O)C(Cc1cc2ccccc2[nH]1)NC(C)=O'
p1311
I-1
sg61
I1
ssS'CC(C)(C)OC(=O)C(Cc1c[nH]c2ccccc12)N=C=S.CN>>CNC(=S)NC(Cc1c[nH]c2ccccc12)C(=O)OC(C)(C)C'
p1312
(dp1313
S'CC(C)(C)OC(=O)C(Cc1c[nH]c2ccccc12)N=C=S'
p1314
I-1
sS'CN'
p1315
I-1
sS'CNC(=S)NC(Cc1c[nH]c2ccccc12)C(=O)OC(C)(C)C'
p1316
I1
ssS'NCCCCCN.O=C(OCc1ccccc1)Oc1ccccc1>>NCCCCCNC(=O)OCc1ccccc1'
p1317
(dp1318
S'O=C(OCc1ccccc1)Oc1ccccc1'
p1319
I-1
sg15
I1
sS'NCCCCCN'
p1320
I-1
ssS'COC(=O)[C@H](Cc1cc2ccccc2[nH]1)NC(=O)OC(C)(C)C>>N[C@@H](Cc1cc2ccccc2[nH]1)C(=O)O'
p1321
(dp1322
g239
I1
sg529
I-1
ssS'Cn1cc(CC(NC(=O)OCc2ccccc2)C(=O)OC(C)(C)C)c2ccccc21>>Cn1cc(CC(N)C(=O)OC(C)(C)C)c2ccccc21'
p1323
(dp1324
S'Cn1cc(CC(NC(=O)OCc2ccccc2)C(=O)OC(C)(C)C)c2ccccc21'
p1325
I-1
sS'Cn1cc(CC(N)C(=O)OC(C)(C)C)c2ccccc21'
p1326
I1
ssS'C=CC(O)c1cc2cc(OC(F)(F)F)ccc2[nH]1.CC(C)(C)[Si](C)(C)Cl>>C=CC(O[Si](C)(C)C(C)(C)C)c1cc2cc(OC(F)(F)F)ccc2[nH]1'
p1327
(dp1328
S'C=CC(O)c1cc2cc(OC(F)(F)F)ccc2[nH]1'
p1329
I-1
sg792
I1
sS'CC(C)(C)[Si](C)(C)Cl'
p1330
I-1
ssS'O=C(O)c1cc2cc(OC(F)(F)F)ccc2[nH]1>>CCOC(=O)c1cc2cc(OC(F)(F)F)ccc2[nH]1'
p1331
(dp1332
S'CCOC(=O)c1cc2cc(OC(F)(F)F)ccc2[nH]1'
p1333
I1
sS'O=C(O)c1cc2cc(OC(F)(F)F)ccc2[nH]1'
p1334
I-1
ssS'C=O.CNC.c1ccc2[nH]ccc2c1>>CN(C)Cc1c[nH]c2ccccc12'
p1335
(dp1336
S'C=O'
p1337
I-1
sg55
I1
sS'CNC'
p1338
I-1
sS'c1ccc2[nH]ccc2c1'
p1339
I-1
ssS'COC(=O)[C@@H]1CCC(=O)N1C(=O)OC>>COC(=O)[C@@H]1CCC(O)N1C(=O)OC'
p1340
(dp1341
g256
I-1
sS'COC(=O)[C@@H]1CCC(O)N1C(=O)OC'
p1342
I1
ssS'CC(=O)OCc1ccccc1.c1ccccc1>>c1ccc(Cc2ccccc2)cc1'
p1343
(dp1344
S'CC(=O)OCc1ccccc1'
p1345
I-1
sS'c1ccccc1'
p1346
I-1
sg622
I1
ssS'CC(=O)Cc1ccccc1[N+](=O)[O-].COC(=O)OC>>COC(=O)CC(=O)Cc1ccccc1[N+](=O)[O-]'
p1347
(dp1348
S'COC(=O)OC'
p1349
I-1
sg818
I1
sS'CC(=O)Cc1ccccc1[N+](=O)[O-]'
p1350
I-1
ssS'Cn1ccc2ccccc21>>CN(C)Cc1cn(C)c2ccccc12'
p1351
(dp1352
g662
I1
sS'Cn1ccc2ccccc21'
p1353
I-1
ssS'Cn1cc(CC(N)C(=O)OC(C)(C)C)c2ccccc21.O=C(O)c1ccccc1>>Cn1cc(CC(NC(=O)c2ccccc2)C(=O)OC(C)(C)C)c2ccccc21'
p1354
(dp1355
S'Cn1cc(CC(NC(=O)c2ccccc2)C(=O)OC(C)(C)C)c2ccccc21'
p1356
I1
sS'Cn1cc(CC(N)C(=O)OC(C)(C)C)c2ccccc21'
p1357
I-1
sS'O=C(O)c1ccccc1'
p1358
I-1
ssS'C=CCBr.CC(C)(C)OC(=O)NCC(=O)O>>C=CCOC(=O)CNC(=O)OC(C)(C)C'
p1359
(dp1360
g33
I1
sS'C=CCBr'
p1361
I-1
sS'CC(C)(C)OC(=O)NCC(=O)O'
p1362
I-1
ssS'NC(Cc1cc2ccccc2[nH]1)C(=O)O.[N-]=C=O>>O=C1NC(=O)C(Cc2cc3ccccc3[nH]2)N1'
p1363
(dp1364
S'[N-]=C=O'
p1365
I-1
sS'O=C1NC(=O)C(Cc2cc3ccccc3[nH]2)N1'
p1366
I1
sS'NC(Cc1cc2ccccc2[nH]1)C(=O)O'
p1367
I-1
ssS'Cc1ccccc1C(=O)ONC(=O)OC(C)(C)C>>Cc1ccccc1NC(=O)OC(C)(C)C'
p1368
(dp1369
g160
I1
sS'Cc1ccccc1C(=O)ONC(=O)OC(C)(C)C'
p1370
I-1
ssS'CC(C)(C)OC(=O)OC(=O)OC(C)(C)C.NC(Cc1cc2ccccc2[nH]1)C(=O)O>>CC(C)(C)OC(=O)NC(Cc1cc2ccccc2[nH]1)C(=O)O'
p1371
(dp1372
g723
I1
sS'CC(C)(C)OC(=O)OC(=O)OC(C)(C)C'
p1373
I-1
sS'NC(Cc1cc2ccccc2[nH]1)C(=O)O'
p1374
I-1
ssS'NC(=O)c1c(C(O)Cc2cccnc2)[nH]c2ccc(OC(F)(F)F)cc12>>O=C(O)c1c(C(O)Cc2cccnc2)[nH]c2ccc(OC(F)(F)F)cc12'
p1375
(dp1376
g428
I1
sS'NC(=O)c1c(C(O)Cc2cccnc2)[nH]c2ccc(OC(F)(F)F)cc12'
p1377
I-1
ssS'CNO.O=C(Cl)CCN1C(=O)c2ccccc2C1=O>>CN(O)C(=O)CCN1C(=O)c2ccccc2C1=O'
p1378
(dp1379
S'CNO'
p1380
I-1
sS'O=C(Cl)CCN1C(=O)c2ccccc2C1=O'
p1381
I-1
sS'CN(O)C(=O)CCN1C(=O)c2ccccc2C1=O'
p1382
I1
ssS'N#CCCCCNc1nc2ccccc2[n+]([O-])n1>>NCCCCCNc1nc2ccccc2[n+]([O-])n1'
p1383
(dp1384
g1126
I-1
sg450
I1
ssS'C=CCc1cc2cc(OC(F)(F)F)ccc2n1S(=O)(=O)c1ccc(C)cc1>>Cc1ccc(S(=O)(=O)n2c(CC=O)cc3cc(OC(F)(F)F)ccc32)cc1'
p1385
(dp1386
g482
I1
sS'C=CCc1cc2cc(OC(F)(F)F)ccc2n1S(=O)(=O)c1ccc(C)cc1'
p1387
I-1
ssS'Brc1c[nH]c2ccccc12.C=C(NC(=O)OC(C)(C)C)C(=O)OC(C)(C)C>>CC(C)(C)OC(=O)NC(=Cc1c[nH]c2ccccc12)C(=O)OC(C)(C)C'
p1388
(dp1389
S'CC(C)(C)OC(=O)NC(=Cc1c[nH]c2ccccc12)C(=O)OC(C)(C)C'
p1390
I1
sS'C=C(NC(=O)OC(C)(C)C)C(=O)OC(C)(C)C'
p1391
I-1
sS'Brc1c[nH]c2ccccc12'
p1392
I-1
ssS'CNOC.COC(=O)C(Cc1cn(C)c2ccccc12)NC(=O)OC(C)(C)C>>CON(C)C(=O)C(Cc1cn(C)c2ccccc12)NC(=O)OC(C)(C)C'
p1393
(dp1394
S'CNOC'
p1395
I-1
sS'CON(C)C(=O)C(Cc1cn(C)c2ccccc12)NC(=O)OC(C)(C)C'
p1396
I1
sS'COC(=O)C(Cc1cn(C)c2ccccc12)NC(=O)OC(C)(C)C'
p1397
I-1
ssS'Cc1ccc(S(=O)(=O)Cl)cc1.Nc1ccc(OC(F)(F)F)cc1I>>Cc1ccc(S(=O)(=O)Nc2ccc(OC(F)(F)F)cc2I)cc1'
p1398
(dp1399
S'Cc1ccc(S(=O)(=O)Nc2ccc(OC(F)(F)F)cc2I)cc1'
p1400
I1
sS'Cc1ccc(S(=O)(=O)Cl)cc1'
p1401
I-1
sS'Nc1ccc(OC(F)(F)F)cc1I'
p1402
I-1
ssS'CS(=O)(=O)OS(C)(=O)=O.OCc1cc2ccccc2[nH]1>>CS(=O)(=O)OCc1cc2ccccc2[nH]1'
p1403
(dp1404
S'CS(=O)(=O)OS(C)(=O)=O'
p1405
I-1
sS'CS(=O)(=O)OCc1cc2ccccc2[nH]1'
p1406
I1
sS'OCc1cc2ccccc2[nH]1'
p1407
I-1
ssS'CI.Cc1ccc(S(=O)(=O)N2C(=O)NC(=O)C2Cc2cn(C=O)c3ccccc23)cc1>>Cc1ccc(S(=O)(=O)N2C(=O)N(C)C(=O)C2Cc2cn(C=O)c3ccccc23)cc1'
p1408
(dp1409
g323
I1
sS'CI'
p1410
I-1
sS'Cc1ccc(S(=O)(=O)N2C(=O)NC(=O)C2Cc2cn(C=O)c3ccccc23)cc1'
p1411
I-1
ssS'NCc1c[nH]c2ccccc12>>S=C(S)NCc1c[nH]c2ccccc12'
p1412
(dp1413
S'S=C(S)NCc1c[nH]c2ccccc12'
p1414
I1
sS'NCc1c[nH]c2ccccc12'
p1415
I-1
ssS'COS(=O)(=O)OC.O=C1NC(=O)C(Cc2c[nH]c3ccccc23)N1>>CN1C(=O)NC(Cc2c[nH]c3ccccc23)C1=O'
p1416
(dp1417
g625
I1
sS'COS(=O)(=O)OC'
p1418
I-1
sS'O=C1NC(=O)C(Cc2c[nH]c3ccccc23)N1'
p1419
I-1
ssS'NCCCCCN.[O-][n+]1nc(Cl)nc2ccccc21>>NCCCCCNc1nc2ccccc2[n+]([O-])n1'
p1420
(dp1421
g450
I1
sS'[O-][n+]1nc(Cl)nc2ccccc21'
p1422
I-1
sS'NCCCCCN'
p1423
I-1
ssS'C=C(C(=O)OCC)c1cc(OC(F)(F)F)ccc1[N+](=O)[O-]>>CCOC(=O)c1c[nH]c2ccc(OC(F)(F)F)cc12'
p1424
(dp1425
g1164
I-1
sS'CCOC(=O)c1c[nH]c2ccc(OC(F)(F)F)cc12'
p1426
I1
ssS'CNC(=S)NC(Cc1c[nH]c2ccccc12)C(=O)OC(C)(C)C>>CNC(=S)NC(Cc1c[nH]c2ccccc12)C(=O)O'
p1427
(dp1428
g629
I1
sg1316
I-1
ssS'CCOC(=O)C(N)Cc1c[nH]c2ccccc12>>NC(Cc1c[nH]c2ccccc12)C(=O)O'
p1429
(dp1430
g499
I1
sS'CCOC(=O)C(N)Cc1c[nH]c2ccccc12'
p1431
I-1
ssS'N#CC(=NO)c1ccccc1.O=C(Cl)Cl>>N#CC(=NOC(=O)Cl)c1ccccc1'
p1432
(dp1433
S'O=C(Cl)Cl'
p1434
I-1
sS'N#CC(=NO)c1ccccc1'
p1435
I-1
sS'N#CC(=NOC(=O)Cl)c1ccccc1'
p1436
I1
ssS'C1=COCCC1.OCCCCCBr>>BrCCCCCOC1CCCCO1'
p1437
(dp1438
S'C1=COCCC1'
p1439
I-1
sS'BrCCCCCOC1CCCCO1'
p1440
I1
sS'OCCCCCBr'
p1441
I-1
ssS'CC(C)(C)OC(=O)N[C@@H](Cc1cc2ccccc2[nH]1)C(=O)O.OCc1ccccc1>>CC(C)(C)OC(=O)N[C@@H](Cc1cc2ccccc2[nH]1)C(=O)OCc1ccccc1'
p1442
(dp1443
S'OCc1ccccc1'
p1444
I-1
sg111
I1
sS'CC(C)(C)OC(=O)N[C@@H](Cc1cc2ccccc2[nH]1)C(=O)O'
p1445
I-1
ssS'NCCc1cc(OC(F)(F)F)ccc1Cl>>FC(F)(F)Oc1ccc2c(c1)CCN2'
p1446
(dp1447
g1287
I1
sS'NCCc1cc(OC(F)(F)F)ccc1Cl'
p1448
I-1
ssS'CC(C)(C)O.CC(C)(C)OC(=O)N[C@@H](CCl)C(=O)O>>CC(C)(C)OC(=O)N[C@@H](CCl)C(=O)OC(C)(C)C'
p1449
(dp1450
S'CC(C)(C)O'
p1451
I-1
sS'CC(C)(C)OC(=O)N[C@@H](CCl)C(=O)O'
p1452
I-1
sS'CC(C)(C)OC(=O)N[C@@H](CCl)C(=O)OC(C)(C)C'
p1453
I1
ssS'C#C[Na].N#CCBr>>C#CCC#N'
p1454
(dp1455
S'C#CCC#N'
p1456
I1
sS'N#CCBr'
p1457
I-1
sS'C#C[Na]'
p1458
I-1
ssS'CN=C=O.COC(=O)C(N)Cc1c[nH]c2ccccc12>>CNC(=O)NC(Cc1c[nH]c2ccccc12)C(=O)OC'
p1459
(dp1460
g1032
I1
sS'CN=C=O'
p1461
I-1
sS'COC(=O)C(N)Cc1c[nH]c2ccccc12'
p1462
I-1
ssS'BrCCc1cc2ccccc2[nH]1.O=C1CCC(=O)N1>>O=C1CCC(=O)N1CCc1cc2ccccc2[nH]1'
p1463
(dp1464
S'BrCCc1cc2ccccc2[nH]1'
p1465
I-1
sg77
I1
sS'O=C1CCC(=O)N1'
p1466
I-1
ssS'Cc1ccc(S(=O)(=O)Cl)cc1.O=C1NC(=O)C(Cc2c[nH]c3ccccc23)N1>>Cc1ccc(S(=O)(=O)N2C(=O)NC(=O)C2Cc2c[nH]c3ccccc23)cc1'
p1467
(dp1468
S'O=C1NC(=O)C(Cc2c[nH]c3ccccc23)N1'
p1469
I-1
sS'Cc1ccc(S(=O)(=O)Cl)cc1'
p1470
I-1
sS'Cc1ccc(S(=O)(=O)N2C(=O)NC(=O)C2Cc2c[nH]c3ccccc23)cc1'
p1471
I1
ssS'COC(OC)N(C)C.Cc1cccnc1>>CN(C)C=Cc1cccnc1'
p1472
(dp1473
g333
I1
sS'Cc1cccnc1'
p1474
I-1
sS'COC(OC)N(C)C'
p1475
I-1
ssS'O=C(O)Cc1cc2ccccc2[nH]1.[NH4+]>>NC(=O)Cc1cc2ccccc2[nH]1'
p1476
(dp1477
S'O=C(O)Cc1cc2ccccc2[nH]1'
p1478
I-1
sg48
I1
sS'[NH4+]'
p1479
I-1
ssS'C=CCOC(=O)C(N)Cc1cn(C)c2ccccc12.CC(C)(C)OC(=O)OC(=O)OC(C)(C)C>>C=CCOC(=O)C(Cc1cn(C)c2ccccc12)NC(=O)OC(C)(C)C'
p1480
(dp1481
S'C=CCOC(=O)C(N)Cc1cn(C)c2ccccc12'
p1482
I-1
sg1044
I1
sS'CC(C)(C)OC(=O)OC(=O)OC(C)(C)C'
p1483
I-1
ssS'CNC(=O)OC.O=C(NC(Cc1c[nH]c2ccccc12)C(=O)O)OCc1ccccc1>>COC(=O)N(C)C(=O)C(Cc1c[nH]c2ccccc12)NC(=O)OCc1ccccc1'
p1484
(dp1485
S'CNC(=O)OC'
p1486
I-1
sS'COC(=O)N(C)C(=O)C(Cc1c[nH]c2ccccc12)NC(=O)OCc1ccccc1'
p1487
I1
sS'O=C(NC(Cc1c[nH]c2ccccc12)C(=O)O)OCc1ccccc1'
p1488
I-1
ssS'COC(=O)[C@H](CC#Cc1ccccc1[N+](=O)[O-])NC(C)=O>>COC(=O)[C@H](CC#Cc1ccccc1N)NC(C)=O'
p1489
(dp1490
g788
I1
sS'COC(=O)[C@H](CC#Cc1ccccc1[N+](=O)[O-])NC(C)=O'
p1491
I-1
ssS'CNC.Cn1cc(C(=O)Cl)c2ccccc21>>CN(C)C(=O)c1cn(C)c2ccccc12'
p1492
(dp1493
S'Cn1cc(C(=O)Cl)c2ccccc21'
p1494
I-1
sg663
I1
sS'CNC'
p1495
I-1
ssS'CO.O=C(O)c1cc(OC(F)(F)F)ccc1[N+](=O)[O-]>>COC(=O)c1cc(OC(F)(F)F)ccc1[N+](=O)[O-]'
p1496
(dp1497
g69
I1
sS'CO'
p1498
I-1
sS'O=C(O)c1cc(OC(F)(F)F)ccc1[N+](=O)[O-]'
p1499
I-1
ssS'Cn1cc(CC(C=O)NC(=O)OC(C)(C)C)c2ccccc21>>Cn1cc(CC(NC(=O)OC(C)(C)C)C(=O)O)c2ccccc21'
p1500
(dp1501
g176
I1
sg736
I-1
ssS'O=C(NC(Cc1cc2ccccc2[nH]1)C(=O)O)c1ccccc1>>NC(Cc1cc2ccccc2[nH]1)C(=O)O'
p1502
(dp1503
S'O=C(NC(Cc1cc2ccccc2[nH]1)C(=O)O)c1ccccc1'
p1504
I-1
sg61
I1
ssS'CCOC(=O)C(Cc1cn(C)c2ccccc12)NC=O.OCc1ccccc1>>Cn1cc(CC(NC=O)C(=O)OCc2ccccc2)c2ccccc21'
p1505
(dp1506
S'OCc1ccccc1'
p1507
I-1
sS'CCOC(=O)C(Cc1cn(C)c2ccccc12)NC=O'
p1508
I-1
sg704
I1
ssS'[O-][n+]1nc(O)nc2ccccc21>>[O-][n+]1nc(Cl)nc2ccccc21'
p1509
(dp1510
g1300
I-1
sS'[O-][n+]1nc(Cl)nc2ccccc21'
p1511
I1
ssS'C[N+](=O)[O-].O=Cc1cc(OC(F)(F)F)ccc1Cl>>O=[N+]([O-])C=Cc1cc(OC(F)(F)F)ccc1Cl'
p1512
(dp1513
S'O=[N+]([O-])C=Cc1cc(OC(F)(F)F)ccc1Cl'
p1514
I1
sS'C[N+](=O)[O-]'
p1515
I-1
sS'O=Cc1cc(OC(F)(F)F)ccc1Cl'
p1516
I-1
ssS'O=C(O)c1cc(OC(F)(F)F)ccc1[N+](=O)[O-]>>O=[N+]([O-])c1ccc(OC(F)(F)F)cc1CO'
p1517
(dp1518
g203
I1
sS'O=C(O)c1cc(OC(F)(F)F)ccc1[N+](=O)[O-]'
p1519
I-1
ssS'CC(=O)Cl.O=C[O-]>>CC(=O)OC=O'
p1520
(dp1521
S'O=C[O-]'
p1522
I-1
sS'CC(=O)OC=O'
p1523
I1
sS'CC(=O)Cl'
p1524
I-1
ssS'COC(=O)CN(C(=O)OC(C)(C)C)C(CO[Si](C)(C)C(C)(C)C)c1ccccc1.Cn1cc(CBr)c2ccccc21>>COC(=O)C(Cc1cn(C)c2ccccc12)N(C(=O)OC(C)(C)C)C(CO[Si](C)(C)C(C)(C)C)c1ccccc1'
p1525
(dp1526
S'Cn1cc(CBr)c2ccccc21'
p1527
I-1
sS'COC(=O)CN(C(=O)OC(C)(C)C)C(CO[Si](C)(C)C(C)(C)C)c1ccccc1'
p1528
I-1
sS'COC(=O)C(Cc1cn(C)c2ccccc12)N(C(=O)OC(C)(C)C)C(CO[Si](C)(C)C(C)(C)C)c1ccccc1'
p1529
I1
ssS'O=C(Cc1cc2ccccc2[nH]1)n1nnc2ccccc21>>NC(=O)Cc1cc2ccccc2[nH]1'
p1530
(dp1531
S'O=C(Cc1cc2ccccc2[nH]1)n1nnc2ccccc21'
p1532
I-1
sg48
I1
ssS'C#CC[C@H](NC(C)=O)C(=O)OC.Nc1ccccc1I>>COC(=O)[C@H](CC#Cc1ccccc1N)NC(C)=O'
p1533
(dp1534
g788
I1
sS'Nc1ccccc1I'
p1535
I-1
sS'C#CC[C@H](NC(C)=O)C(=O)OC'
p1536
I-1
ssS'NC(Cc1c[nH]c2ccccc12)C(=O)O>>CCOC(=O)C(N)Cc1c[nH]c2ccccc12'
p1537
(dp1538
S'NC(Cc1c[nH]c2ccccc12)C(=O)O'
p1539
I-1
sg391
I1
ssS'COC(=O)C(Cc1cn(C)c2ccccc12)NC(C)=O>>Cn1cc(CC(N)C(=O)O)c2ccccc21'
p1540
(dp1541
g431
I1
sS'COC(=O)C(Cc1cn(C)c2ccccc12)NC(C)=O'
p1542
I-1
ssS'O=C(O)c1c[nH]c2ccccc12>>CCOC(=O)c1c[nH]c2ccccc12'
p1543
(dp1544
S'CCOC(=O)c1c[nH]c2ccccc12'
p1545
I1
sS'O=C(O)c1c[nH]c2ccccc12'
p1546
I-1
ssS'CNC.Cn1cc(C(=O)O)c2ccccc21>>CN(C)C(=O)c1cn(C)c2ccccc12'
p1547
(dp1548
g663
I1
sS'CNC'
p1549
I-1
sS'Cn1cc(C(=O)O)c2ccccc21'
p1550
I-1
ssS'O=C(Cl)Oc1ccccc1.OCc1ccccc1>>O=C(OCc1ccccc1)Oc1ccccc1'
p1551
(dp1552
S'OCc1ccccc1'
p1553
I-1
sS'O=C(OCc1ccccc1)Oc1ccccc1'
p1554
I1
sS'O=C(Cl)Oc1ccccc1'
p1555
I-1
ssS'CC(C)(C)OC(=O)OC(=O)OC(C)(C)C.Cc1ccccc1N>>Cc1ccccc1NC(=O)OC(C)(C)C'
p1556
(dp1557
g160
I1
sS'Cc1ccccc1N'
p1558
I-1
sS'CC(C)(C)OC(=O)OC(=O)OC(C)(C)C'
p1559
I-1
ssS'CN=C=O.COC(=O)C1Cc2c([nH]c3cc(Br)ccc23)C(C)N1>>CC1c2[nH]c3cc(Br)ccc3c2CC2C(=O)N(C)C(=O)N21'
p1560
(dp1561
g225
I1
sS'CN=C=O'
p1562
I-1
sS'COC(=O)C1Cc2c([nH]c3cc(Br)ccc23)C(C)N1'
p1563
I-1
ssS'CCOC(=O)C(Cc1c[nH]c2ccccc12)N=C=S.CN>>CCOC(=O)C(Cc1c[nH]c2ccccc12)NC(=S)NC'
p1564
(dp1565
g1138
I1
sS'CN'
p1566
I-1
sS'CCOC(=O)C(Cc1c[nH]c2ccccc12)N=C=S'
p1567
I-1
ssS'ClC(Cl)Cl>>O=C(Cl)Cl'
p1568
(dp1569
S'O=C(Cl)Cl'
p1570
I1
sS'ClC(Cl)Cl'
p1571
I-1
ssS'CCOC(=O)Cl.Nc1ccccc1I>>CCOC(=O)Nc1ccccc1I'
p1572
(dp1573
S'CCOC(=O)Nc1ccccc1I'
p1574
I1
sS'Nc1ccccc1I'
p1575
I-1
sS'CCOC(=O)Cl'
p1576
I-1
ssS'Cc1ccc(S(=O)(=O)Nc2ccccc2C#CCCN2C(=O)c3ccccc3C2=O)cc1>>Cc1ccc(S(=O)(=O)n2c(CCN3C(=O)c4ccccc4C3=O)cc3ccccc32)cc1'
p1577
(dp1578
g369
I-1
sS'Cc1ccc(S(=O)(=O)n2c(CCN3C(=O)c4ccccc4C3=O)cc3ccccc32)cc1'
p1579
I1
ssS'CC(=O)OC(Cc1cccnc1)c1cc2cc(OC(F)(F)F)ccc2n1S(=O)(=O)c1ccc(C)cc1>>CC(=O)OC(Cc1cccnc1)c1cc2cc(OC(F)(F)F)ccc2[nH]1'
p1580
(dp1581
g129
I-1
sg103
I1
ssS'CS(=O)(=O)Cl.CS(=O)(=O)Cl.Nc1ccc(OC(F)(F)F)cc1I>>CS(=O)(=O)N(c1ccc(OC(F)(F)F)cc1I)S(C)(=O)=O'
p1582
(dp1583
S'Nc1ccc(OC(F)(F)F)cc1I'
p1584
I-1
sg632
I1
sS'CS(=O)(=O)Cl'
p1585
I-1
ssS'CCOC(=O)CC(=O)[O-].O=C(Cc1ccccc1[N+](=O)[O-])n1ccnc1>>CCOC(=O)CC(=O)Cc1ccccc1[N+](=O)[O-]'
p1586
(dp1587
S'CCOC(=O)CC(=O)Cc1ccccc1[N+](=O)[O-]'
p1588
I1
sS'CCOC(=O)CC(=O)[O-]'
p1589
I-1
sS'O=C(Cc1ccccc1[N+](=O)[O-])n1ccnc1'
p1590
I-1
ssS'COC(=O)C(Cc1cn(C)c2ccccc12)NC(=O)OC(C)(C)C>>Cn1cc(CC(NC(=O)OC(C)(C)C)C(N)=O)c2ccccc21'
p1591
(dp1592
S'COC(=O)C(Cc1cn(C)c2ccccc12)NC(=O)OC(C)(C)C'
p1593
I-1
sS'Cn1cc(CC(NC(=O)OC(C)(C)C)C(N)=O)c2ccccc21'
p1594
I1
ssS'Cn1cc(CC(N)C#N)c2ccccc21>>Cn1cc(CC(N)C(=O)O)c2ccccc21'
p1595
(dp1596
S'Cn1cc(CC(N)C#N)c2ccccc21'
p1597
I-1
sg431
I1
ssS'CC1NC(C(=O)O)Cc2c1[nH]c1ccccc21.CO>>COC(=O)C1Cc2c([nH]c3ccccc23)C(C)N1'
p1598
(dp1599
S'CC1NC(C(=O)O)Cc2c1[nH]c1ccccc21'
p1600
I-1
sS'CO'
p1601
I-1
sS'COC(=O)C1Cc2c([nH]c3ccccc23)C(C)N1'
p1602
I1
ssS'CCO/C=C/c1cccnc1>>O=CCc1cccnc1'
p1603
(dp1604
g19
I1
sS'CCO/C=C/c1cccnc1'
p1605
I-1
ssS'CC(C)(C)OC(=O)NC(Cc1cc2ccccc2[nH]1)C(=O)O>>NC(Cc1cc2ccccc2[nH]1)C(=O)O'
p1606
(dp1607
g723
I-1
sg61
I1
ssS'CC1(C)OC(=O)C(C(=O)Cc2ccccc2[N+](=O)[O-])C(=O)O1.CCO>>CCOC(=O)CC(=O)Cc1ccccc1[N+](=O)[O-]'
p1608
(dp1609
g1588
I1
sS'CCO'
p1610
I-1
sS'CC1(C)OC(=O)C(C(=O)Cc2ccccc2[N+](=O)[O-])C(=O)O1'
p1611
I-1
ssS'O=C(O)Cc1ccccc1[N+](=O)[O-].O=C(n1ccnc1)n1ccnc1>>O=C(Cc1ccccc1[N+](=O)[O-])n1ccnc1'
p1612
(dp1613
S'O=C(O)Cc1ccccc1[N+](=O)[O-]'
p1614
I-1
sS'O=C(n1ccnc1)n1ccnc1'
p1615
I-1
sS'O=C(Cc1ccccc1[N+](=O)[O-])n1ccnc1'
p1616
I1
ssS'CI.Ic1c[nH]c2ccccc12>>Cn1cc(I)c2ccccc21'
p1617
(dp1618
S'Ic1c[nH]c2ccccc12'
p1619
I-1
sS'CI'
p1620
I-1
sg1238
I1
ssS'CC(C)(C)OC(=O)OC(=O)OC(C)(C)C.CCOC(=O)C(N)Cc1cn(C)c2ccccc12>>CCOC(=O)C(Cc1cn(C)c2ccccc12)NC(=O)OC(C)(C)C'
p1621
(dp1622
S'CCOC(=O)C(Cc1cn(C)c2ccccc12)NC(=O)OC(C)(C)C'
p1623
I1
sS'CC(C)(C)OC(=O)OC(=O)OC(C)(C)C'
p1624
I-1
sS'CCOC(=O)C(N)Cc1cn(C)c2ccccc12'
p1625
I-1
ssS'CCOC(=O)CN.O=Cc1ccccc1Br>>CCOC(=O)c1cc2ccccc2[nH]1'
p1626
(dp1627
S'O=Cc1ccccc1Br'
p1628
I-1
sS'CCOC(=O)CN'
p1629
I-1
sS'CCOC(=O)c1cc2ccccc2[nH]1'
p1630
I1
ssS'OCc1cc2ccccc2[nH]1>>BrCc1cc2ccccc2[nH]1'
p1631
(dp1632
S'BrCc1cc2ccccc2[nH]1'
p1633
I1
sS'OCc1cc2ccccc2[nH]1'
p1634
I-1
ssS'CCOC(=O)C(Cc1cc2ccccc2[nH]1)NC(=O)OC(C)(C)C>>CC(C)(C)OC(=O)NC(Cc1cc2ccccc2[nH]1)C(=O)O'
p1635
(dp1636
g956
I-1
sg723
I1
ssS'COC(=O)N[C@@H](CC#Cc1ccccc1[N+](=O)[O-])C(=O)OC(C)(C)C>>COC(=O)N[C@@H](CC#Cc1ccccc1N)C(=O)OC(C)(C)C'
p1637
(dp1638
g265
I1
sS'COC(=O)N[C@@H](CC#Cc1ccccc1[N+](=O)[O-])C(=O)OC(C)(C)C'
p1639
I-1
ssS'CC(=O)n1c(CC#N)cc2ccccc21>>N#CCc1cc2ccccc2[nH]1'
p1640
(dp1641
S'CC(=O)n1c(CC#N)cc2ccccc21'
p1642
I-1
sg535
I1
ssS'CN1C(=O)C(CC2C(=O)Nc3ccccc32)N(C(=O)OCc2ccccc2)C1=O>>CN1C(=O)C(CC2CNc3ccccc32)N(C(=O)OCc2ccccc2)C1=O'
p1643
(dp1644
S'CN1C(=O)C(CC2CNc3ccccc32)N(C(=O)OCc2ccccc2)C1=O'
p1645
I1
sS'CN1C(=O)C(CC2C(=O)Nc3ccccc32)N(C(=O)OCc2ccccc2)C1=O'
p1646
I-1
ssS'O=C(O)Cc1cc2ccccc2[nH]1>>O=C(F)Cc1cc2ccccc2[nH]1'
p1647
(dp1648
g769
I1
sS'O=C(O)Cc1cc2ccccc2[nH]1'
p1649
I-1
ssS'Brc1cncc(I)c1.CC(C)(C)[Si](C)(C)OC(C=O)c1cc2cc(OC(F)(F)F)ccc2[nH]1>>CC(C)(C)[Si](C)(C)OC(c1cc2cc(OC(F)(F)F)ccc2[nH]1)C(O)c1cncc(I)c1'
p1650
(dp1651
S'Brc1cncc(I)c1'
p1652
I-1
sS'CC(C)(C)[Si](C)(C)OC(C=O)c1cc2cc(OC(F)(F)F)ccc2[nH]1'
p1653
I-1
sS'CC(C)(C)[Si](C)(C)OC(c1cc2cc(OC(F)(F)F)ccc2[nH]1)C(O)c1cncc(I)c1'
p1654
I1
ssS'O=Cc1c[nH]c2ccc(OC(F)(F)F)cc12>>FC(F)(F)Oc1ccc2[nH]ccc2c1'
p1655
(dp1656
g1197
I1
sg773
I-1
ssS'CC(C)(C)OC(=O)OC(=O)OC(C)(C)C.COC(=O)CNC(CO[Si](C)(C)C(C)(C)C)c1ccccc1>>COC(=O)CN(C(=O)OC(C)(C)C)C(CO[Si](C)(C)C(C)(C)C)c1ccccc1'
p1657
(dp1658
S'COC(=O)CN(C(=O)OC(C)(C)C)C(CO[Si](C)(C)C(C)(C)C)c1ccccc1'
p1659
I1
sS'CC(C)(C)OC(=O)OC(=O)OC(C)(C)C'
p1660
I-1
sS'COC(=O)CNC(CO[Si](C)(C)C(C)(C)C)c1ccccc1'
p1661
I-1
ssS'BrCc1c[nH]c2ccccc12.CCOC(=O)CN=C(c1ccccc1)c1ccccc1>>CCOC(=O)C(Cc1c[nH]c2ccccc12)N=C(c1ccccc1)c1ccccc1'
p1662
(dp1663
S'CCOC(=O)CN=C(c1ccccc1)c1ccccc1'
p1664
I-1
sS'BrCc1c[nH]c2ccccc12'
p1665
I-1
sg390
I1
ssS'CCOC(=O)c1cc2ccccc2[nH]1.O=S(=O)(Cl)c1ccccc1>>CCOC(=O)c1cc2ccccc2n1S(=O)(=O)c1ccccc1'
p1666
(dp1667
g808
I1
sS'O=S(=O)(Cl)c1ccccc1'
p1668
I-1
sS'CCOC(=O)c1cc2ccccc2[nH]1'
p1669
I-1
ssS'C#C[Si](C)(C)C.Cc1ccc(S(=O)(=O)OCCCl)cc1>>C[Si](C)(C)C#CCCCl'
p1670
(dp1671
S'Cc1ccc(S(=O)(=O)OCCCl)cc1'
p1672
I-1
sS'C#C[Si](C)(C)C'
p1673
I-1
sS'C[Si](C)(C)C#CCCCl'
p1674
I1
ssS'CC(C)(C)OC(=O)OC(=O)OC(C)(C)C.COC(=O)Cc1ccccc1[N+](=O)[O-]>>COC(=O)Cc1ccccc1NC(=O)OC(C)(C)C'
p1675
(dp1676
S'COC(=O)Cc1ccccc1[N+](=O)[O-]'
p1677
I-1
sS'CC(C)(C)OC(=O)OC(=O)OC(C)(C)C'
p1678
I-1
sg359
I1
ssS'O=C(Cl)C(=O)Cl.O=C(O)Cc1cccnc1>>O=C(Cl)Cc1cccnc1'
p1679
(dp1680
S'O=C(O)Cc1cccnc1'
p1681
I-1
sg801
I1
sS'O=C(Cl)C(=O)Cl'
p1682
I-1
ssS'CC(C)(C)O.O=C(O)CC(=O)Cc1ccccc1[N+](=O)[O-]>>CC(C)(C)OC(=O)CC(=O)Cc1ccccc1[N+](=O)[O-]'
p1683
(dp1684
S'CC(C)(C)O'
p1685
I-1
sg1107
I1
sS'O=C(O)CC(=O)Cc1ccccc1[N+](=O)[O-]'
p1686
I-1
ssS'CCOC(=O)CN=C(c1ccccc1)c1ccccc1.Cn1cc(CBr)c2ccccc21>>CCOC(=O)C(Cc1cn(C)c2ccccc12)N=C(c1ccccc1)c1ccccc1'
p1687
(dp1688
S'Cn1cc(CBr)c2ccccc21'
p1689
I-1
sS'CCOC(=O)CN=C(c1ccccc1)c1ccccc1'
p1690
I-1
sg538
I1
ssS'CCOC(=O)CN.N=C(c1ccccc1)c1ccccc1>>CCOC(=O)CN=C(c1ccccc1)c1ccccc1'
p1691
(dp1692
S'CCOC(=O)CN=C(c1ccccc1)c1ccccc1'
p1693
I1
sS'N=C(c1ccccc1)c1ccccc1'
p1694
I-1
sS'CCOC(=O)CN'
p1695
I-1
ssS'CC(C)(C)OC(=O)OC(=O)OC(C)(C)C.COC(=O)C(N)Cc1cn(C)c2ccccc12>>COC(=O)C(Cc1cn(C)c2ccccc12)NC(=O)OC(C)(C)C'
p1696
(dp1697
S'COC(=O)C(N)Cc1cn(C)c2ccccc12'
p1698
I-1
sS'COC(=O)C(Cc1cn(C)c2ccccc12)NC(=O)OC(C)(C)C'
p1699
I1
sS'CC(C)(C)OC(=O)OC(=O)OC(C)(C)C'
p1700
I-1
ssS'Nc1nc2ccccc2[n+]([O-])n1>>[O-][n+]1nc(Cl)nc2ccccc21'
p1701
(dp1702
S'Nc1nc2ccccc2[n+]([O-])n1'
p1703
I-1
sg1511
I1
ssS'CC(C)[Si](C(C)C)(C(C)C)n1ccc2ccccc21>>CC(C)[Si](C(C)C)(C(C)C)n1cc(Br)c2ccccc21'
p1704
(dp1705
S'CC(C)[Si](C(C)C)(C(C)C)n1ccc2ccccc21'
p1706
I-1
sS'CC(C)[Si](C(C)C)(C(C)C)n1cc(Br)c2ccccc21'
p1707
I1
ssS'ClCCCCCBr.O=C1NC(=O)c2ccccc21>>O=C1c2ccccc2C(=O)N1CCCCCCl'
p1708
(dp1709
S'O=C1NC(=O)c2ccccc21'
p1710
I-1
sS'ClCCCCCBr'
p1711
I-1
sS'O=C1c2ccccc2C(=O)N1CCCCCCl'
p1712
I1
ssS'c1ccccc1.c1ccccc1>>c1ccc(Cc2ccccc2)cc1'
p1713
(dp1714
S'c1ccccc1'
p1715
I-1
sg622
I1
ssS'O=C(Cl)Cc1cc2ccccc2[nH]1>>NC(=O)Cc1cc2ccccc2[nH]1'
p1716
(dp1717
S'O=C(Cl)Cc1cc2ccccc2[nH]1'
p1718
I-1
sg48
I1
ssS'CC(C)(C)OC(=O)C(N)Cc1c[nH]c2ccccc12.S=C(Cl)Cl>>CC(C)(C)OC(=O)C(Cc1c[nH]c2ccccc12)N=C=S'
p1719
(dp1720
S'CC(C)(C)OC(=O)C(N)Cc1c[nH]c2ccccc12'
p1721
I-1
sS'S=C(Cl)Cl'
p1722
I-1
sS'CC(C)(C)OC(=O)C(Cc1c[nH]c2ccccc12)N=C=S'
p1723
I1
ssS'CC(C)[Si](C(C)C)(C(C)C)n1cc(Br)c2ccccc21>>Brc1c[nH]c2ccccc12'
p1724
(dp1725
g1707
I-1
sg675
I1
ssS'C#CCBr.CC(C)(C)OC(=O)CN=C(c1ccccc1)c1ccccc1>>C#CC[C@H](N=C(c1ccccc1)c1ccccc1)C(=O)OC(C)(C)C'
p1726
(dp1727
S'CC(C)(C)OC(=O)CN=C(c1ccccc1)c1ccccc1'
p1728
I-1
sS'C#CC[C@H](N=C(c1ccccc1)c1ccccc1)C(=O)OC(C)(C)C'
p1729
I1
sS'C#CCBr'
p1730
I-1
ssS'CS(=O)(=O)Cl.OCc1cc2ccccc2[nH]1>>CS(=O)(=O)OCc1cc2ccccc2[nH]1'
p1731
(dp1732
g1406
I1
sS'OCc1cc2ccccc2[nH]1'
p1733
I-1
sS'CS(=O)(=O)Cl'
p1734
I-1
ssS'O=C(Cc1cccnc1)c1[nH]c2ccc(OC(F)(F)F)cc2c1C(=O)O>>O=C(O)c1c(C(O)Cc2cccnc2)[nH]c2ccc(OC(F)(F)F)cc12'
p1735
(dp1736
g428
I1
sg222
I-1
ssS'Nc1ccccc1C#CCCN1C(=O)c2ccccc2C1=O>>O=C1c2ccccc2C(=O)N1CCc1cc2ccccc2[nH]1'
p1737
(dp1738
g502
I1
sS'Nc1ccccc1C#CCCN1C(=O)c2ccccc2C1=O'
p1739
I-1
ssS'Brc1cccnc1.C=COCC>>CCO/C=C/c1cccnc1'
p1740
(dp1741
S'C=COCC'
p1742
I-1
sg1605
I1
sS'Brc1cccnc1'
p1743
I-1
ssS'COC(=O)Cl.O=C1CCC(=O)N1O>>COC(=O)ON1C(=O)CCC1=O'
p1744
(dp1745
S'O=C1CCC(=O)N1O'
p1746
I-1
sS'COC(=O)Cl'
p1747
I-1
sS'COC(=O)ON1C(=O)CCC1=O'
p1748
I1
ssS'O=C(CBr)c1cc2ccccc2[nH]1.O=C1[N-]C(=O)c2ccccc21>>O=C(CN1C(=O)c2ccccc2C1=O)c1cc2ccccc2[nH]1'
p1749
(dp1750
S'O=C1[N-]C(=O)c2ccccc21'
p1751
I-1
sS'O=C(CBr)c1cc2ccccc2[nH]1'
p1752
I-1
sS'O=C(CN1C(=O)c2ccccc2C1=O)c1cc2ccccc2[nH]1'
p1753
I1
ssS'O=CC(Cl)(Cl)Cl.c1ccccc1.c1ccccc1>>ClC(Cl)(Cl)C(c1ccccc1)c1ccccc1'
p1754
(dp1755
g621
I1
sS'c1ccccc1'
p1756
I-1
sS'O=CC(Cl)(Cl)Cl'
p1757
I-1
ssS'Cn1cc(CC(N)C(=O)O)c2ccccc21.O=Cc1ccccc1>>Cn1cc(CC(/N=C/c2ccccc2)C(=O)O)c2ccccc21'
p1758
(dp1759
S'Cn1cc(CC(N)C(=O)O)c2ccccc21'
p1760
I-1
sS'O=Cc1ccccc1'
p1761
I-1
sS'Cn1cc(CC(/N=C/c2ccccc2)C(=O)O)c2ccccc21'
p1762
I1
ssS'CCOC(=O)C(Cc1c[nH]c2ccccc12)(NC(C)=O)C(=O)OCC>>CC(=O)NC(Cc1c[nH]c2ccccc12)C(=O)O'
p1763
(dp1764
g498
I1
sS'CCOC(=O)C(Cc1c[nH]c2ccccc12)(NC(C)=O)C(=O)OCC'
p1765
I-1
ssS'Brc1cccnc1>>C[Sn](C)(C)c1cccnc1'
p1766
(dp1767
g468
I1
sS'Brc1cccnc1'
p1768
I-1
ssS'COC(=O)C(Cc1cn(C)c2ccccc12)NC(=O)OCc1ccccc1>>COC(=O)C(N)Cc1cn(C)c2ccccc12'
p1769
(dp1770
g246
I1
sS'COC(=O)C(Cc1cn(C)c2ccccc12)NC(=O)OCc1ccccc1'
p1771
I-1
ssS'CC(=O)OC(C)=O.OCc1c[nH]c2ccccc12>>CC(=O)OCc1c[nH]c2ccccc12'
p1772
(dp1773
S'OCc1c[nH]c2ccccc12'
p1774
I-1
sS'CC(=O)OCc1c[nH]c2ccccc12'
p1775
I1
sS'CC(=O)OC(C)=O'
p1776
I-1
ssS'C=CCOC(=O)CNC(=O)OC(C)(C)C>>C=CCOC(=O)CN'
p1777
(dp1778
S'C=CCOC(=O)CN'
p1779
I1
sg33
I-1
ssS'COC(=O)[C@H](CC#Cc1ccccc1[N+](=O)[O-])NC(=O)OC(C)(C)C>>COC(=O)[C@H](CC#Cc1ccccc1N)NC(=O)OC(C)(C)C'
p1780
(dp1781
S'COC(=O)[C@H](CC#Cc1ccccc1[N+](=O)[O-])NC(=O)OC(C)(C)C'
p1782
I-1
sg528
I1
ssS'C=CCc1cccnc1>>OCC(O)Cc1cccnc1'
p1783
(dp1784
S'C=CCc1cccnc1'
p1785
I-1
sS'OCC(O)Cc1cccnc1'
p1786
I1
ssS'O=C1NC(=O)C(Cc2cc3ccccc3[nH]2)N1>>NC(Cc1cc2ccccc2[nH]1)C(=O)O'
p1787
(dp1788
S'O=C1NC(=O)C(Cc2cc3ccccc3[nH]2)N1'
p1789
I-1
sg61
I1
ssS'NCCCCCNC(=O)C(F)(F)F.[O-][n+]1nc(Cl)nc2ccccc21>>O=C(NCCCCCNc1nc2ccccc2[n+]([O-])n1)C(F)(F)F'
p1790
(dp1791
S'NCCCCCNC(=O)C(F)(F)F'
p1792
I-1
sg532
I1
sS'[O-][n+]1nc(Cl)nc2ccccc21'
p1793
I-1
ssS'COC(=O)C(Cc1cn(C)c2ccccc12)NC=O>>Cn1cc(CC(NC=O)C(=O)O)c2ccccc21'
p1794
(dp1795
S'COC(=O)C(Cc1cn(C)c2ccccc12)NC=O'
p1796
I-1
sS'Cn1cc(CC(NC=O)C(=O)O)c2ccccc21'
p1797
I1
ssS'NC(Cc1c[nH]c2ccccc12)C(=O)O.OCc1ccccc1>>NC(Cc1c[nH]c2ccccc12)C(=O)OCc1ccccc1'
p1798
(dp1799
S'OCc1ccccc1'
p1800
I-1
sg739
I1
sS'NC(Cc1c[nH]c2ccccc12)C(=O)O'
p1801
I-1
ssS'CC(C)(C)OC(=O)OC(=O)OC(C)(C)C.CCOC(=O)C(N)Cc1c[nH]c2ccccc12>>CCOC(=O)C(Cc1c[nH]c2ccccc12)NC(=O)OC(C)(C)C'
p1802
(dp1803
S'CCOC(=O)C(Cc1c[nH]c2ccccc12)NC(=O)OC(C)(C)C'
p1804
I1
sS'CC(C)(C)OC(=O)OC(=O)OC(C)(C)C'
p1805
I-1
sS'CCOC(=O)C(N)Cc1c[nH]c2ccccc12'
p1806
I-1
ssS'CC(C)(C)[Si](C)(C)OC(C(=O)c1cncc(I)c1)c1cc2cc(OC(F)(F)F)ccc2[nH]1>>O=C(c1cncc(I)c1)C(O)c1cc2cc(OC(F)(F)F)ccc2[nH]1'
p1807
(dp1808
S'O=C(c1cncc(I)c1)C(O)c1cc2cc(OC(F)(F)F)ccc2[nH]1'
p1809
I1
sS'CC(C)(C)[Si](C)(C)OC(C(=O)c1cncc(I)c1)c1cc2cc(OC(F)(F)F)ccc2[nH]1'
p1810
I-1
ssS'C[Si](C)(C)C#CCCCl>>C#CCCCl'
p1811
(dp1812
S'C#CCCCl'
p1813
I1
sg1674
I-1
ssS'C#C[Si](C)(C)C.Nc1ccc(OC(F)(F)F)cc1I>>C[Si](C)(C)C#Cc1cc(OC(F)(F)F)ccc1N'
p1814
(dp1815
S'C#C[Si](C)(C)C'
p1816
I-1
sS'C[Si](C)(C)C#Cc1cc(OC(F)(F)F)ccc1N'
p1817
I1
sS'Nc1ccc(OC(F)(F)F)cc1I'
p1818
I-1
ssS'NC(Cc1c[nH]c2ccccc12)C(=O)O.[N-]=C=O>>O=C1NC(=O)C(Cc2c[nH]c3ccccc23)N1'
p1819
(dp1820
S'[N-]=C=O'
p1821
I-1
sS'O=C1NC(=O)C(Cc2c[nH]c3ccccc23)N1'
p1822
I1
sS'NC(Cc1c[nH]c2ccccc12)C(=O)O'
p1823
I-1
ssS'COC(=O)[C@H](Cc1cc2ccccc2[nH]1)NC(=O)OCc1ccccc1>>O=C(N[C@@H](Cc1cc2ccccc2[nH]1)C(=O)O)OCc1ccccc1'
p1824
(dp1825
S'COC(=O)[C@H](Cc1cc2ccccc2[nH]1)NC(=O)OCc1ccccc1'
p1826
I-1
sS'O=C(N[C@@H](Cc1cc2ccccc2[nH]1)C(=O)O)OCc1ccccc1'
p1827
I1
ssS'CC(C)(C)OC(=O)C(Cc1c[nH]c2ccccc12)N=C(c1ccccc1)c1ccccc1>>CC(C)(C)OC(=O)C(N)Cc1c[nH]c2ccccc12'
p1828
(dp1829
S'CC(C)(C)OC(=O)C(Cc1c[nH]c2ccccc12)N=C(c1ccccc1)c1ccccc1'
p1830
I-1
sg1216
I1
ssS'CC(C)(C)OC(=O)NO.Cc1ccccc1C(=O)O>>Cc1ccccc1C(=O)ONC(=O)OC(C)(C)C'
p1831
(dp1832
S'CC(C)(C)OC(=O)NO'
p1833
I-1
sS'Cc1ccccc1C(=O)O'
p1834
I-1
sg1370
I1
ssS'C#C[Si](C)(C)C.O=[N+]([O-])c1ccc(OC(F)(F)F)cc1Br>>C[Si](C)(C)C#Cc1cc(OC(F)(F)F)ccc1[N+](=O)[O-]'
p1835
(dp1836
S'C[Si](C)(C)C#Cc1cc(OC(F)(F)F)ccc1[N+](=O)[O-]'
p1837
I1
sS'C#C[Si](C)(C)C'
p1838
I-1
sS'O=[N+]([O-])c1ccc(OC(F)(F)F)cc1Br'
p1839
I-1
ssS'CCOC(=O)C(N)Cc1c[nH]c2ccccc12.CN=C=S>>CCOC(=O)C(Cc1c[nH]c2ccccc12)NC(=S)NC'
p1840
(dp1841
g1138
I1
sS'CN=C=S'
p1842
I-1
sS'CCOC(=O)C(N)Cc1c[nH]c2ccccc12'
p1843
I-1
ssS'FC(F)(F)Oc1ccc2[nH]ccc2c1.O=C=NS(=O)(=O)Cl>>N#Cc1c[nH]c2ccc(OC(F)(F)F)cc12'
p1844
(dp1845
S'O=C=NS(=O)(=O)Cl'
p1846
I-1
sS'FC(F)(F)Oc1ccc2[nH]ccc2c1'
p1847
I-1
sS'N#Cc1c[nH]c2ccc(OC(F)(F)F)cc12'
p1848
I1
ssS'Cn1cc(CC(CO)NC(=O)OC(C)(C)C)c2ccccc21>>Cn1cc(CC(NC(=O)OC(C)(C)C)C(=O)O)c2ccccc21'
p1849
(dp1850
g176
I1
sg400
I-1
ssS'C#CCCCl.Cc1ccc(S(=O)(=O)Nc2ccccc2Cl)cc1>>Cc1ccc(S(=O)(=O)Nc2ccccc2C#CCCCl)cc1'
p1851
(dp1852
S'C#CCCCl'
p1853
I-1
sS'Cc1ccc(S(=O)(=O)Nc2ccccc2C#CCCCl)cc1'
p1854
I1
sS'Cc1ccc(S(=O)(=O)Nc2ccccc2Cl)cc1'
p1855
I-1
ssS'CC(=O)OC(C)=O.CCOC(=O)C(N)Cc1cc2ccccc2[nH]1>>CCOC(=O)C(Cc1cc2ccccc2[nH]1)NC(C)=O'
p1856
(dp1857
g1311
I1
sS'CCOC(=O)C(N)Cc1cc2ccccc2[nH]1'
p1858
I-1
sS'CC(=O)OC(C)=O'
p1859
I-1
ssS'CCO.O=C(O)Cc1cc2ccccc2[nH]1>>CCOC(=O)Cc1cc2ccccc2[nH]1'
p1860
(dp1861
S'CCO'
p1862
I-1
sS'O=C(O)Cc1cc2ccccc2[nH]1'
p1863
I-1
sg813
I1
ssS'COC(=O)[C@H](CC#Cc1ccccc1[N+](=O)[O-])NC(=O)OCc1ccccc1>>COC(=O)[C@H](CC#Cc1ccccc1N)NC(=O)OCc1ccccc1'
p1864
(dp1865
g575
I-1
sS'COC(=O)[C@H](CC#Cc1ccccc1N)NC(=O)OCc1ccccc1'
p1866
I1
ssS'CC(C)(C)[Si](C)(C)OC(c1cc2cc(OC(F)(F)F)ccc2[nH]1)C(O)c1cccnc1>>CC(C)(C)[Si](C)(C)OC(C(=O)c1cccnc1)c1cc2cc(OC(F)(F)F)ccc2[nH]1'
p1867
(dp1868
S'CC(C)(C)[Si](C)(C)OC(c1cc2cc(OC(F)(F)F)ccc2[nH]1)C(O)c1cccnc1'
p1869
I-1
sg453
I1
ssS'Brc1cccnc1.C=COC>>COC=Cc1cccnc1'
p1870
(dp1871
S'C=COC'
p1872
I-1
sg382
I1
sS'Brc1cccnc1'
p1873
I-1
ssS'CC(=O)NC(Cc1cn(C)c2ccccc12)C(=O)O>>Cn1cc(CC(N)C(=O)O)c2ccccc21'
p1874
(dp1875
g431
I1
sS'CC(=O)NC(Cc1cn(C)c2ccccc12)C(=O)O'
p1876
I-1
ssS'Cn1cc(CC(N)C(=O)OCc2ccccc2)c2ccccc21.O=CO>>Cn1cc(CC(NC=O)C(=O)OCc2ccccc2)c2ccccc21'
p1877
(dp1878
S'O=CO'
p1879
I-1
sS'Cn1cc(CC(N)C(=O)OCc2ccccc2)c2ccccc21'
p1880
I-1
sg704
I1
ssS'OC(Cc1cccnc1)c1cc2cc(OC(F)(F)F)ccc2[nH]1>>O=C(Cc1cccnc1)c1cc2cc(OC(F)(F)F)ccc2[nH]1'
p1881
(dp1882
S'O=C(Cc1cccnc1)c1cc2cc(OC(F)(F)F)ccc2[nH]1'
p1883
I1
sg658
I-1
ssS'OCc1cc2ccccc2[nH]1>>ClCc1cc2ccccc2[nH]1'
p1884
(dp1885
S'ClCc1cc2ccccc2[nH]1'
p1886
I1
sS'OCc1cc2ccccc2[nH]1'
p1887
I-1
ssS'C=CCBr.OB(O)c1cccnc1>>C=CCc1cccnc1'
p1888
(dp1889
g1785
I1
sS'C=CCBr'
p1890
I-1
sS'OB(O)c1cccnc1'
p1891
I-1
ssS'CC(C)(C)OC(=O)OC(=O)OC(C)(C)C.CCS>>CCSC(=O)OC(C)(C)C'
p1892
(dp1893
S'CCS'
p1894
I-1
sS'CC(C)(C)OC(=O)OC(=O)OC(C)(C)C'
p1895
I-1
sS'CCSC(=O)OC(C)(C)C'
p1896
I1
ssS'N#Cc1c(C(O)Cc2cccnc2)[nH]c2ccc(OC(F)(F)F)cc12>>NC(=O)c1c(C(O)Cc2cccnc2)[nH]c2ccc(OC(F)(F)F)cc12'
p1897
(dp1898
S'NC(=O)c1c(C(O)Cc2cccnc2)[nH]c2ccc(OC(F)(F)F)cc12'
p1899
I1
sS'N#Cc1c(C(O)Cc2cccnc2)[nH]c2ccc(OC(F)(F)F)cc12'
p1900
I-1
ssS'CC(C)(C)OC(=O)N[C@@H](Cc1cc2ccccc2[nH]1)C(=O)O>>N[C@@H](Cc1cc2ccccc2[nH]1)C(=O)O'
p1901
(dp1902
g239
I1
sg112
I-1
ssS'CC(C)(C)OC(=O)OC(=O)OC(C)(C)C.CC(C)(C)OC(=O)[C@@H](N)CCl>>CC(C)(C)OC(=O)N[C@@H](CCl)C(=O)OC(C)(C)C'
p1903
(dp1904
g1453
I1
sS'CC(C)(C)OC(=O)OC(=O)OC(C)(C)C'
p1905
I-1
sS'CC(C)(C)OC(=O)[C@@H](N)CCl'
p1906
I-1
ssS'CCOC(=O)C(Cc1cn(C)c2ccccc12)N(C(=O)OC(C)(C)C)C(C=O)c1ccccc1>>Cn1cc(CC(C(=O)O)N(C(=O)OC(C)(C)C)C(C=O)c2ccccc2)c2ccccc21'
p1907
(dp1908
g362
I-1
sg121
I1
ssS'CCS.O=C(Cl)Cc1cccnc1>>CCSC(=O)Cc1cccnc1'
p1909
(dp1910
S'CCSC(=O)Cc1cccnc1'
p1911
I1
sS'O=C(Cl)Cc1cccnc1'
p1912
I-1
sS'CCS'
p1913
I-1
ssS'N[C@@H](Cc1cc2ccccc2[nH]1)C(=O)O>>NCCc1cc2ccccc2[nH]1'
p1914
(dp1915
g239
I-1
sg78
I1
ssS'Nc1nc2ccccc2[n+]([O-])n1.O=C1c2ccccc2C(=O)N1CCCCCCl>>O=C1c2ccccc2C(=O)N1CCCCCNc1nc2ccccc2[n+]([O-])n1'
p1916
(dp1917
S'Nc1nc2ccccc2[n+]([O-])n1'
p1918
I-1
sg1091
I1
sS'O=C1c2ccccc2C(=O)N1CCCCCCl'
p1919
I-1
ssS'CC(C)(C)Br.O=C(NC(Cc1c[nH]c2ccccc12)C(=O)O)OCc1ccccc1>>CC(C)(C)OC(=O)C(Cc1c[nH]c2ccccc12)NC(=O)OCc1ccccc1'
p1920
(dp1921
S'CC(C)(C)OC(=O)C(Cc1c[nH]c2ccccc12)NC(=O)OCc1ccccc1'
p1922
I1
sS'CC(C)(C)Br'
p1923
I-1
sS'O=C(NC(Cc1c[nH]c2ccccc12)C(=O)O)OCc1ccccc1'
p1924
I-1
ssS'NC(Cc1c[nH]c2ccccc12)C(=O)O.O=C(OC(=O)C(F)(F)F)C(F)(F)F>>O=C(O)C(Cc1c[nH]c2ccccc12)NC(=O)C(F)(F)F'
p1925
(dp1926
S'O=C(O)C(Cc1c[nH]c2ccccc12)NC(=O)C(F)(F)F'
p1927
I1
sS'O=C(OC(=O)C(F)(F)F)C(F)(F)F'
p1928
I-1
sS'NC(Cc1c[nH]c2ccccc12)C(=O)O'
p1929
I-1
ssS'NCCCCCCl.O=C1OC(=O)c2ccccc21>>O=C(O)c1ccccc1C(=O)NCCCCCCl'
p1930
(dp1931
S'NCCCCCCl'
p1932
I-1
sS'O=C1OC(=O)c2ccccc21'
p1933
I-1
sS'O=C(O)c1ccccc1C(=O)NCCCCCCl'
p1934
I1
ssS'O=Cc1c(C(=O)Cc2cccnc2)[nH]c2ccc(OC(F)(F)F)cc12>>O=C(Cc1cccnc1)c1[nH]c2ccc(OC(F)(F)F)cc2c1C(=O)O'
p1935
(dp1936
g222
I1
sS'O=Cc1c(C(=O)Cc2cccnc2)[nH]c2ccc(OC(F)(F)F)cc12'
p1937
I-1
ssS'Brc1cccnc1.ClCC1CO1>>OC(CCl)Cc1cccnc1'
p1938
(dp1939
g1116
I1
sS'ClCC1CO1'
p1940
I-1
sS'Brc1cccnc1'
p1941
I-1
ssS'COC(=O)C(CC#Cc1ccccc1N)NC(=O)OC(C)(C)C>>COC(=O)C(Cc1cc2ccccc2[nH]1)NC(=O)OC(C)(C)C'
p1942
(dp1943
g473
I-1
sS'COC(=O)C(Cc1cc2ccccc2[nH]1)NC(=O)OC(C)(C)C'
p1944
I1
ssS'COC(=O)[C@@H]1CCCN1C(=O)OC>>COC(=O)[C@@H]1CCC(O)N1C(=O)OC'
p1945
(dp1946
S'COC(=O)[C@@H]1CCCN1C(=O)OC'
p1947
I-1
sg1342
I1
ssS'CCOC(=O)C(CC#Cc1ccccc1N)NC(=O)OCc1ccccc1>>CCOC(=O)C(Cc1cc2ccccc2[nH]1)NC(=O)OCc1ccccc1'
p1948
(dp1949
g845
I1
sg117
I-1
ssS'COC(=O)C(N)Cc1c[nH]c2ccccc12.O=C(OC(Cl)(Cl)Cl)OC(Cl)(Cl)Cl>>COC(=O)C(Cc1c[nH]c2ccccc12)N=C=O'
p1950
(dp1951
S'O=C(OC(Cl)(Cl)Cl)OC(Cl)(Cl)Cl'
p1952
I-1
sS'COC(=O)C(N)Cc1c[nH]c2ccccc12'
p1953
I-1
sS'COC(=O)C(Cc1c[nH]c2ccccc12)N=C=O'
p1954
I1
ssS'C#CCC(N)C(=O)O.CO>>C#CCC(N)C(=O)OC'
p1955
(dp1956
S'CO'
p1957
I-1
sS'C#CCC(N)C(=O)O'
p1958
I-1
sS'C#CCC(N)C(=O)OC'
p1959
I1
ssS'C=O.C=O.Cn1cc(CN)c2ccccc21>>CN(C)Cc1cn(C)c2ccccc12'
p1960
(dp1961
S'C=O'
p1962
I-1
sS'CN(C)Cc1cn(C)c2ccccc12'
p1963
I1
sS'Cn1cc(CN)c2ccccc21'
p1964
I-1
ssS'CCOC(=O)C(NC=O)C(=O)OCC.CN(C)Cc1c[nH]c2ccccc12>>CCOC(=O)C(Cc1c[nH]c2ccccc12)(NC=O)C(=O)OCC'
p1965
(dp1966
S'CN(C)Cc1c[nH]c2ccccc12'
p1967
I-1
sg719
I1
sS'CCOC(=O)C(NC=O)C(=O)OCC'
p1968
I-1
ssS'C#CCC(N)C(=O)OC.COC(=O)Cl>>C#CCC(NC(=O)OC)C(=O)OC'
p1969
(dp1970
S'COC(=O)Cl'
p1971
I-1
sS'C#CCC(N)C(=O)OC'
p1972
I-1
sS'C#CCC(NC(=O)OC)C(=O)OC'
p1973
I1
ssS'Cn1cc(CC(C#N)NC(=O)OC(C)(C)C)c2ccccc21>>Cn1cc(CC(N)C#N)c2ccccc21'
p1974
(dp1975
S'Cn1cc(CC(C#N)NC(=O)OC(C)(C)C)c2ccccc21'
p1976
I-1
sS'Cn1cc(CC(N)C#N)c2ccccc21'
p1977
I1
ssS'CCOC(=O)C(Cc1c[nH]c2cc(Br)ccc12)(NC(C)=O)C(=O)OCC>>NC(Cc1c[nH]c2cc(Br)ccc12)C(=O)O'
p1978
(dp1979
g969
I1
sS'CCOC(=O)C(Cc1c[nH]c2cc(Br)ccc12)(NC(C)=O)C(=O)OCC'
p1980
I-1
ssS'CCO/C=C\\c1cccnc1>>O=CCc1cccnc1'
p1981
(dp1982
g649
I-1
sg19
I1
ssS'CN(O)C(=O)CCN1C(=O)c2ccccc2C1=O.COS(=O)(=O)OC>>CON(C)C(=O)CCN1C(=O)c2ccccc2C1=O'
p1983
(dp1984
S'COS(=O)(=O)OC'
p1985
I-1
sS'CN(O)C(=O)CCN1C(=O)c2ccccc2C1=O'
p1986
I-1
sS'CON(C)C(=O)CCN1C(=O)c2ccccc2C1=O'
p1987
I1
ssS'CC(C)(C)OC(=O)OC(=O)OC(C)(C)C.CON(C)C(=O)C(N)Cc1cn(C)c2ccccc12>>CON(C)C(=O)C(Cc1cn(C)c2ccccc12)NC(=O)OC(C)(C)C'
p1988
(dp1989
g1396
I1
sS'CC(C)(C)OC(=O)OC(=O)OC(C)(C)C'
p1990
I-1
sS'CON(C)C(=O)C(N)Cc1cn(C)c2ccccc12'
p1991
I-1
ssS'COC(=O)C(Cc1c[nH]c2ccccc12)[N+](=O)[O-]>>COC(=O)C(N)Cc1c[nH]c2ccccc12'
p1992
(dp1993
S'COC(=O)C(Cc1c[nH]c2ccccc12)[N+](=O)[O-]'
p1994
I-1
sg1181
I1
ssS'OC(O)C(Cl)(Cl)Cl.c1ccccc1.c1ccccc1>>ClC(Cl)(Cl)C(c1ccccc1)c1ccccc1'
p1995
(dp1996
S'OC(O)C(Cl)(Cl)Cl'
p1997
I-1
sg621
I1
sS'c1ccccc1'
p1998
I-1
ssS'O=C(NC(Cc1cc2ccccc2[nH]1)C(=O)O)c1ccccc1>>N[C@@H](Cc1cc2ccccc2[nH]1)C(=O)O'
p1999
(dp2000
S'O=C(NC(Cc1cc2ccccc2[nH]1)C(=O)O)c1ccccc1'
p2001
I-1
sg239
I1
ssS'CCOC(=O)C(Cc1cn(C)c2ccccc12)(NC(C)=O)C(=O)OCC>>CC(=O)NC(Cc1cn(C)c2ccccc12)(C(=O)O)C(=O)O'
p2002
(dp2003
S'CCOC(=O)C(Cc1cn(C)c2ccccc12)(NC(C)=O)C(=O)OCC'
p2004
I-1
sS'CC(=O)NC(Cc1cn(C)c2ccccc12)(C(=O)O)C(=O)O'
p2005
I1
ssS'FC(F)(F)Oc1ccc2[nH]ccc2c1>>FC(F)(F)Oc1ccc2[nH]c(Br)cc2c1'
p2006
(dp2007
S'FC(F)(F)Oc1ccc2[nH]ccc2c1'
p2008
I-1
sg373
I1
ssS'CC(C)(C)S(=O)Cl.COC(=O)C(N)Cc1c[nH]c2ccccc12>>COC(=O)C(Cc1c[nH]c2ccccc12)NS(=O)C(C)(C)C'
p2009
(dp2010
g888
I1
sS'COC(=O)C(N)Cc1c[nH]c2ccccc12'
p2011
I-1
sS'CC(C)(C)S(=O)Cl'
p2012
I-1
ssS'CCSC(=O)OC(C)(C)C>>CC(C)(C)OC(=O)Cl'
p2013
(dp2014
g642
I1
sg1896
I-1
ssS'FC(F)(F)Oc1ccc2[nH]ccc2c1.O=C(Cl)C(F)(F)F>>O=C(c1c[nH]c2ccc(OC(F)(F)F)cc12)C(F)(F)F'
p2015
(dp2016
S'FC(F)(F)Oc1ccc2[nH]ccc2c1'
p2017
I-1
sg975
I1
sS'O=C(Cl)C(F)(F)F'
p2018
I-1
ssS'CON(C)C(=O)Cc1cccnc1>>O=CCc1cccnc1'
p2019
(dp2020
S'CON(C)C(=O)Cc1cccnc1'
p2021
I-1
sg19
I1
ssS'CC(C)(C)[Si](C)(C)Cl.COC(=O)CN(C(=O)OC(C)(C)C)C(CO)c1ccccc1>>COC(=O)CN(C(=O)OC(C)(C)C)C(CO[Si](C)(C)C(C)(C)C)c1ccccc1'
p2022
(dp2023
S'COC(=O)CN(C(=O)OC(C)(C)C)C(CO)c1ccccc1'
p2024
I-1
sg1659
I1
sS'CC(C)(C)[Si](C)(C)Cl'
p2025
I-1
ssS'OCc1cc(OC(F)(F)F)ccc1Cl>>O=Cc1cc(OC(F)(F)F)ccc1Cl'
p2026
(dp2027
S'O=Cc1cc(OC(F)(F)F)ccc1Cl'
p2028
I1
sS'OCc1cc(OC(F)(F)F)ccc1Cl'
p2029
I-1
ssS'O=C(Cl)c1ccccc1.c1ccccc1>>O=C(c1ccccc1)c1ccccc1'
p2030
(dp2031
S'c1ccccc1'
p2032
I-1
sS'O=C(Cl)c1ccccc1'
p2033
I-1
sg1078
I1
ssS'CC(C)(C)O.Cc1ccc(S(=O)(=O)N=C=O)cc1>>Cc1ccc(S(=O)(=O)NC(=O)OC(C)(C)C)cc1'
p2034
(dp2035
S'CC(C)(C)O'
p2036
I-1
sS'Cc1ccc(S(=O)(=O)N=C=O)cc1'
p2037
I-1
sg387
I1
ssS'COC(=O)C(N)Cc1cn(C)c2ccccc12>>Cn1cc(CC(N)C(N)=O)c2ccccc21'
p2038
(dp2039
g107
I1
sS'COC(=O)C(N)Cc1cn(C)c2ccccc12'
p2040
I-1
ssS'CC(=O)OC(C)=O.Cn1ccc2ccccc21.N[C@@H](CO)C(=O)O>>CC(=O)NC(Cc1cn(C)c2ccccc12)C(=O)O'
p2041
(dp2042
S'N[C@@H](CO)C(=O)O'
p2043
I-1
sg1876
I1
sS'Cn1ccc2ccccc21'
p2044
I-1
sS'CC(=O)OC(C)=O'
p2045
I-1
ssS'C#CCC(N)C(=O)OC.O=C(Cl)OCc1ccccc1>>C#CCC(NC(=O)OCc1ccccc1)C(=O)OC'
p2046
(dp2047
S'C#CCC(NC(=O)OCc1ccccc1)C(=O)OC'
p2048
I1
sS'C#CCC(N)C(=O)OC'
p2049
I-1
sS'O=C(Cl)OCc1ccccc1'
p2050
I-1
ssS'Cn1cc(CC(NC(=O)OCc2ccccc2)C(=O)OC(C)(C)C)c2ccccc21>>Cn1cc(CC(NC(=O)OCc2ccccc2)C(=O)O)c2ccccc21'
p2051
(dp2052
g190
I1
sS'Cn1cc(CC(NC(=O)OCc2ccccc2)C(=O)OC(C)(C)C)c2ccccc21'
p2053
I-1
ssS'CC(=O)OC(Cc1cccnc1)c1[nH]c2ccc(OC(F)(F)F)cc2c1C(=O)O>>CC(=O)OC(Cc1cccnc1)c1cc2cc(OC(F)(F)F)ccc2[nH]1'
p2054
(dp2055
S'CC(=O)OC(Cc1cccnc1)c1[nH]c2ccc(OC(F)(F)F)cc2c1C(=O)O'
p2056
I-1
sg103
I1
ssS'O=C(OC(c1cc2cc(OC(F)(F)F)ccc2[nH]1)C(O)c1cccnc1)c1ccc([N+](=O)[O-])cc1>>O=C(OC(C(=O)c1cccnc1)c1cc2cc(OC(F)(F)F)ccc2[nH]1)c1ccc([N+](=O)[O-])cc1'
p2057
(dp2058
S'O=C(OC(C(=O)c1cccnc1)c1cc2cc(OC(F)(F)F)ccc2[nH]1)c1ccc([N+](=O)[O-])cc1'
p2059
I1
sg146
I-1
ssS'CCOC(=O)C(F)(F)F.NCCCCCN>>NCCCCCNC(=O)C(F)(F)F'
p2060
(dp2061
g138
I1
sS'CCOC(=O)C(F)(F)F'
p2062
I-1
sS'NCCCCCN'
p2063
I-1
ssS'CC(C)(C)O.CCSC(=O)Cl>>CCSC(=O)OC(C)(C)C'
p2064
(dp2065
S'CC(C)(C)O'
p2066
I-1
sS'CCSC(=O)Cl'
p2067
I-1
sg1896
I1
ssS'CCOC(=O)C(Cc1cc2ccccc2[nH]1)=NO>>NC(Cc1cc2ccccc2[nH]1)C(=O)O'
p2068
(dp2069
S'CCOC(=O)C(Cc1cc2ccccc2[nH]1)=NO'
p2070
I-1
sg61
I1
ssS'C=CCOC(C)=O.Cc1ccc(S(=O)(=O)n2ccc3cc(OC(F)(F)F)ccc32)cc1>>C=CCc1cc2cc(OC(F)(F)F)ccc2n1S(=O)(=O)c1ccc(C)cc1'
p2071
(dp2072
g1387
I1
sS'Cc1ccc(S(=O)(=O)n2ccc3cc(OC(F)(F)F)ccc32)cc1'
p2073
I-1
sS'C=CCOC(C)=O'
p2074
I-1
ssS'CC(C)(C)OC(=O)NC(Cc1c[nH]c2ccccc12)C(=O)OC(C)(C)C.COS(=O)(=O)OC>>Cn1cc(CC(NC(=O)OC(C)(C)C)C(=O)OC(C)(C)C)c2ccccc21'
p2075
(dp2076
S'CC(C)(C)OC(=O)NC(Cc1c[nH]c2ccccc12)C(=O)OC(C)(C)C'
p2077
I-1
sS'COS(=O)(=O)OC'
p2078
I-1
sS'Cn1cc(CC(NC(=O)OC(C)(C)C)C(=O)OC(C)(C)C)c2ccccc21'
p2079
I1
ssS'C=CCOC(=O)NC(Cc1cn(C)c2ccccc12)C(=O)OC>>C=CCOC(=O)NC(Cc1cn(C)c2ccccc12)C(=O)O'
p2080
(dp2081
S'C=CCOC(=O)NC(Cc1cn(C)c2ccccc12)C(=O)O'
p2082
I1
sS'C=CCOC(=O)NC(Cc1cn(C)c2ccccc12)C(=O)OC'
p2083
I-1
ssS'CCOC(=O)CP(=O)(OCC)OCC.O=CC1Cc2ccccc2N1C(=O)OCc1ccccc1>>CCOC(=O)/C=C/C1Cc2ccccc2N1C(=O)OCc1ccccc1'
p2084
(dp2085
S'CCOC(=O)CP(=O)(OCC)OCC'
p2086
I-1
sS'O=CC1Cc2ccccc2N1C(=O)OCc1ccccc1'
p2087
I-1
sS'CCOC(=O)/C=C/C1Cc2ccccc2N1C(=O)OCc1ccccc1'
p2088
I1
ssS'ClC(Cl)(Cl)Cl>>O=C(Cl)Cl'
p2089
(dp2090
g1570
I1
sS'ClC(Cl)(Cl)Cl'
p2091
I-1
ssS'NC(Cc1c[nH]c2ccccc12)C(=O)O.O=C(Cl)C(F)(F)F>>O=C(O)C(Cc1c[nH]c2ccccc12)NC(=O)C(F)(F)F'
p2092
(dp2093
g1927
I1
sS'NC(Cc1c[nH]c2ccccc12)C(=O)O'
p2094
I-1
sS'O=C(Cl)C(F)(F)F'
p2095
I-1
ssS'CC(C)(C)OC(=O)N=C(NC(=O)OC(C)(C)C)Nc1ccccc1[N+](=O)[O-]>>N=C(N)Nc1ccccc1[N+](=O)[O-]'
p2096
(dp2097
S'CC(C)(C)OC(=O)N=C(NC(=O)OC(C)(C)C)Nc1ccccc1[N+](=O)[O-]'
p2098
I-1
sg9
I1
ssS'C#CC[C@H](N)C(=O)OC.O=C(OC(=O)C(F)(F)F)C(F)(F)F>>C#CC[C@H](NC(=O)C(F)(F)F)C(=O)OC'
p2099
(dp2100
S'C#CC[C@H](N)C(=O)OC'
p2101
I-1
sS'O=C(OC(=O)C(F)(F)F)C(F)(F)F'
p2102
I-1
sS'C#CC[C@H](NC(=O)C(F)(F)F)C(=O)OC'
p2103
I1
ssS'Cc1ccc(S(=O)(=O)Nc2ccccc2C#CCCCl)cc1>>Cc1ccc(S(=O)(=O)n2c(CCCl)cc3ccccc32)cc1'
p2104
(dp2105
g1854
I-1
sS'Cc1ccc(S(=O)(=O)n2c(CCCl)cc3ccccc32)cc1'
p2106
I1
ssS'O=C=O.OC(Cc1cccnc1)c1[nH]c2ccc(OC(F)(F)F)cc2c1Br>>O=C(O)c1c(C(O)Cc2cccnc2)[nH]c2ccc(OC(F)(F)F)cc12'
p2107
(dp2108
g428
I1
sS'OC(Cc1cccnc1)c1[nH]c2ccc(OC(F)(F)F)cc2c1Br'
p2109
I-1
sS'O=C=O'
p2110
I-1
ssS'CCOC(=O)C(F)(F)F.NC(Cc1c[nH]c2ccccc12)C(=O)O>>O=C(O)C(Cc1c[nH]c2ccccc12)NC(=O)C(F)(F)F'
p2111
(dp2112
g1927
I1
sS'CCOC(=O)C(F)(F)F'
p2113
I-1
sS'NC(Cc1c[nH]c2ccccc12)C(=O)O'
p2114
I-1
ssS'FC(F)(F)Oc1ccc2[nH]c(Br)cc2c1.O=CCc1ccc(Cl)nc1>>OC(Cc1ccc(Cl)nc1)c1cc2cc(OC(F)(F)F)ccc2[nH]1'
p2115
(dp2116
S'O=CCc1ccc(Cl)nc1'
p2117
I-1
sS'FC(F)(F)Oc1ccc2[nH]c(Br)cc2c1'
p2118
I-1
sg308
I1
ssS'C#C[Si](C)(C)C.Nc1ccc(OC(F)(F)F)cc1Br>>C[Si](C)(C)C#Cc1cc(OC(F)(F)F)ccc1N'
p2119
(dp2120
S'C#C[Si](C)(C)C'
p2121
I-1
sg1817
I1
sS'Nc1ccc(OC(F)(F)F)cc1Br'
p2122
I-1
ssS'C=C(C)C.O=C(NC(Cc1c[nH]c2ccccc12)C(=O)O)OCc1ccccc1>>CC(C)(C)OC(=O)C(Cc1c[nH]c2ccccc12)NC(=O)OCc1ccccc1'
p2123
(dp2124
g1922
I1
sS'C=C(C)C'
p2125
I-1
sS'O=C(NC(Cc1c[nH]c2ccccc12)C(=O)O)OCc1ccccc1'
p2126
I-1
ssS'CNOC.COC(=O)C(O[Si](C)(C)C(C)(C)C)c1cc2cc(OC(F)(F)F)ccc2[nH]1>>CON(C)C(=O)C(O[Si](C)(C)C(C)(C)C)c1cc2cc(OC(F)(F)F)ccc2[nH]1'
p2127
(dp2128
S'CNOC'
p2129
I-1
sS'CON(C)C(=O)C(O[Si](C)(C)C(C)(C)C)c1cc2cc(OC(F)(F)F)ccc2[nH]1'
p2130
I1
sS'COC(=O)C(O[Si](C)(C)C(C)(C)C)c1cc2cc(OC(F)(F)F)ccc2[nH]1'
p2131
I-1
ssS'O=C(O)c1cc(OC(F)(F)F)ccc1[N+](=O)[O-]>>COC(=O)c1cc(OC(F)(F)F)ccc1[N+](=O)[O-]'
p2132
(dp2133
g69
I1
sS'O=C(O)c1cc(OC(F)(F)F)ccc1[N+](=O)[O-]'
p2134
I-1
ssS'CC(=O)NCCc1cc(OC(F)(F)F)ccc1Br>>CC(=O)N1CCc2cc(OC(F)(F)F)ccc21'
p2135
(dp2136
S'CC(=O)NCCc1cc(OC(F)(F)F)ccc1Br'
p2137
I-1
sS'CC(=O)N1CCc2cc(OC(F)(F)F)ccc21'
p2138
I1
ssS'C#CCC(N=C(c1ccccc1)c1ccccc1)C(=O)OCC>>C#CCC(N)C(=O)OCC'
p2139
(dp2140
g688
I-1
sS'C#CCC(N)C(=O)OCC'
p2141
I1
ssS'FC(F)(F)Oc1ccc2c(c1)CCN2>>FC(F)(F)Oc1ccc2[nH]ccc2c1'
p2142
(dp2143
g1197
I1
sS'FC(F)(F)Oc1ccc2c(c1)CCN2'
p2144
I-1
ssS'ClCCc1cc2ccccc2[nH]1>>NCCc1cc2ccccc2[nH]1'
p2145
(dp2146
S'ClCCc1cc2ccccc2[nH]1'
p2147
I-1
sg78
I1
ssS'CC1c2c(c3ccccc3n2C(=O)OC(C)(C)C)CC2C(=O)N(C)C(=O)N21>>CC1c2c(c3ccc(Br)cc3n2C(=O)OC(C)(C)C)CC2C(=O)N(C)C(=O)N21'
p2148
(dp2149
S'CC1c2c(c3ccccc3n2C(=O)OC(C)(C)C)CC2C(=O)N(C)C(=O)N21'
p2150
I-1
sg546
I1
ssS'Br[Mg]c1ccccc1.N#Cc1ccccc1>>N=C(c1ccccc1)c1ccccc1'
p2151
(dp2152
S'Br[Mg]c1ccccc1'
p2153
I-1
sS'N=C(c1ccccc1)c1ccccc1'
p2154
I1
sS'N#Cc1ccccc1'
p2155
I-1
ssS'CNC(=O)NC(Cc1c[nH]c2ccccc12)C(=O)O>>CN1C(=O)NC(Cc2c[nH]c3ccccc23)C1=O'
p2156
(dp2157
g625
I1
sS'CNC(=O)NC(Cc1c[nH]c2ccccc12)C(=O)O'
p2158
I-1
ssS'C#CCCN1C(=O)c2ccccc2C1=O.Nc1ccccc1I>>Nc1ccccc1C#CCCN1C(=O)c2ccccc2C1=O'
p2159
(dp2160
g1739
I1
sS'Nc1ccccc1I'
p2161
I-1
sS'C#CCCN1C(=O)c2ccccc2C1=O'
p2162
I-1
ssS'O=C1Nc2ccc(OC(F)(F)F)cc2C1=O>>FC(F)(F)Oc1ccc2[nH]ccc2c1'
p2163
(dp2164
g1197
I1
sS'O=C1Nc2ccc(OC(F)(F)F)cc2C1=O'
p2165
I-1
ssS'CCOC(=O)c1c[nH]c2ccccc12.CI>>CCOC(=O)c1cn(C)c2ccccc12'
p2166
(dp2167
S'CCOC(=O)c1c[nH]c2ccccc12'
p2168
I-1
sS'CI'
p2169
I-1
sS'CCOC(=O)c1cn(C)c2ccccc12'
p2170
I1
ssS'Cn1cc(CC(NC(=O)OC(C)(C)C)C(=O)OC(C)(C)C)c2ccccc21>>Cn1cc(CC(NC(=O)OC(C)(C)C)C(=O)O)c2ccccc21'
p2171
(dp2172
g176
I1
sg2079
I-1
ssS'C=CCOC(=O)NC(Cc1cn(C)c2ccccc12)C(=O)O>>Cn1cc(CC(N)C(=O)O)c2ccccc21'
p2173
(dp2174
g108
I1
sg2082
I-1
ssS'Cn1cc(CC(N)C(=O)OC(C)(C)C)c2ccccc21>>Cn1cc(CC(N)C(=O)O)c2ccccc21'
p2175
(dp2176
g431
I1
sS'Cn1cc(CC(N)C(=O)OC(C)(C)C)c2ccccc21'
p2177
I-1
ssS'N=C(c1ccccc1)c1ccccc1.NCC(=O)OCc1ccccc1>>O=C(CN=C(c1ccccc1)c1ccccc1)OCc1ccccc1'
p2178
(dp2179
S'N=C(c1ccccc1)c1ccccc1'
p2180
I-1
sS'O=C(CN=C(c1ccccc1)c1ccccc1)OCc1ccccc1'
p2181
I1
sS'NCC(=O)OCc1ccccc1'
p2182
I-1
ssS'CCOC(=O)C(Cc1cn(C)c2ccccc12)NC(=O)OC(C)(C)C>>Cn1cc(CC(CO)NC(=O)OC(C)(C)C)c2ccccc21'
p2183
(dp2184
S'CCOC(=O)C(Cc1cn(C)c2ccccc12)NC(=O)OC(C)(C)C'
p2185
I-1
sg400
I1
ssS'CC(=O)OC(C)=O.CCOC(=O)C(N)C(=O)OCc1ccccc1>>CCOC(=O)C(NC(C)=O)C(=O)OCc1ccccc1'
p2186
(dp2187
S'CCOC(=O)C(N)C(=O)OCc1ccccc1'
p2188
I-1
sS'CCOC(=O)C(NC(C)=O)C(=O)OCc1ccccc1'
p2189
I1
sS'CC(=O)OC(C)=O'
p2190
I-1
ssS'Cn1cc(CC(NC(=O)OCc2ccccc2)C(=O)OCc2ccccc2)c2ccccc21>>Cn1cc(CC(N)C(=O)OCc2ccccc2)c2ccccc21'
p2191
(dp2192
g765
I1
sS'Cn1cc(CC(NC(=O)OCc2ccccc2)C(=O)OCc2ccccc2)c2ccccc21'
p2193
I-1
ssS'O=[N+]([O-])C=Cc1cc(OC(F)(F)F)ccc1Cl>>NCCc1cc(OC(F)(F)F)ccc1Cl'
p2194
(dp2195
g1514
I-1
sg1448
I1
ssS'BrCCCCCBr.O=C1[N-]C(=O)c2ccccc21>>O=C1c2ccccc2C(=O)N1CCCCCBr'
p2196
(dp2197
S'O=C1[N-]C(=O)c2ccccc21'
p2198
I-1
sS'BrCCCCCBr'
p2199
I-1
sg291
I1
ssS'CC#Cc1cc(OC(F)(F)F)ccc1N>>Cc1cc2cc(OC(F)(F)F)ccc2[nH]1'
p2200
(dp2201
g567
I1
sg1102
I-1
ssS'CCOC(=O)c1c[nH]c2ccc(OC(F)(F)F)cc12>>CCOC(=O)c1c(Br)[nH]c2ccc(OC(F)(F)F)cc12'
p2202
(dp2203
S'CCOC(=O)c1c(Br)[nH]c2ccc(OC(F)(F)F)cc12'
p2204
I1
sS'CCOC(=O)c1c[nH]c2ccc(OC(F)(F)F)cc12'
p2205
I-1
ssS'CCOC(=O)N1C(=O)c2ccccc2C1=O.NCCCCCO>>O=C1c2ccccc2C(=O)N1CCCCCO'
p2206
(dp2207
S'CCOC(=O)N1C(=O)c2ccccc2C1=O'
p2208
I-1
sg299
I1
sS'NCCCCCO'
p2209
I-1
ssS'CC(C)(C)OC(=O)OC(=O)OC(C)(C)C.NC(Cc1c[nH]c2ccccc12)C(=O)OCc1ccccc1>>CC(C)(C)OC(=O)NC(Cc1c[nH]c2ccccc12)C(=O)OCc1ccccc1'
p2210
(dp2211
S'NC(Cc1c[nH]c2ccccc12)C(=O)OCc1ccccc1'
p2212
I-1
sg437
I1
sS'CC(C)(C)OC(=O)OC(=O)OC(C)(C)C'
p2213
I-1
ssS'CC(C)(C)OC(=O)NC(Cc1cc2ccccc2[nH]1)C(N)=O>>NC(=O)C(N)Cc1cc2ccccc2[nH]1'
p2214
(dp2215
g601
I1
sS'CC(C)(C)OC(=O)NC(Cc1cc2ccccc2[nH]1)C(N)=O'
p2216
I-1
ssS'CCOC(=O)C(Cc1cc2ccccc2[nH]1)=NO>>CCOC(=O)C(N)Cc1cc2ccccc2[nH]1'
p2217
(dp2218
S'CCOC(=O)C(Cc1cc2ccccc2[nH]1)=NO'
p2219
I-1
sg516
I1
ssS'C#CCC#N.NC(=O)c1ccccc1Br>>N#CCC#Cc1ccccc1C(N)=O'
p2220
(dp2221
S'NC(=O)c1ccccc1Br'
p2222
I-1
sS'C#CCC#N'
p2223
I-1
sS'N#CCC#Cc1ccccc1C(N)=O'
p2224
I1
ssS'Brc1cccnc1.C[Sn](C)(C)[Sn](C)(C)C>>C[Sn](C)(C)c1cccnc1'
p2225
(dp2226
g468
I1
sS'C[Sn](C)(C)[Sn](C)(C)C'
p2227
I-1
sS'Brc1cccnc1'
p2228
I-1
ssS'CC(C)(C)OC(=O)Nc1ccccc1CC(=O)CCN1C(=O)c2ccccc2C1=O>>CC(C)(C)OC(=O)n1c(CCN2C(=O)c3ccccc3C2=O)cc2ccccc21'
p2229
(dp2230
S'CC(C)(C)OC(=O)Nc1ccccc1CC(=O)CCN1C(=O)c2ccccc2C1=O'
p2231
I-1
sg520
I1
ssS'O=C1NC(=O)c2ccccc21.OCCCCCO>>O=C1c2ccccc2C(=O)N1CCCCCO'
p2232
(dp2233
S'O=C1NC(=O)c2ccccc21'
p2234
I-1
sg299
I1
sS'OCCCCCO'
p2235
I-1
ssS'CC(C)[Si](C(C)C)(C(C)C)n1cc(I)c2ccccc21>>Ic1c[nH]c2ccccc12'
p2236
(dp2237
S'Ic1c[nH]c2ccccc12'
p2238
I1
sS'CC(C)[Si](C(C)C)(C(C)C)n1cc(I)c2ccccc21'
p2239
I-1
ssS'CCOC(=O)C(Cc1cn(C)c2ccccc12)(NC(C)=O)C(=O)OCc1ccccc1>>CCOC(=O)C(Cc1cn(C)c2ccccc12)(NC(C)=O)C(=O)O'
p2240
(dp2241
S'CCOC(=O)C(Cc1cn(C)c2ccccc12)(NC(C)=O)C(=O)OCc1ccccc1'
p2242
I-1
sS'CCOC(=O)C(Cc1cn(C)c2ccccc12)(NC(C)=O)C(=O)O'
p2243
I1
ssS'C#CCC(=O)O.CCO>>C#CCC(=O)OCC'
p2244
(dp2245
S'CCO'
p2246
I-1
sS'C#CCC(=O)O'
p2247
I-1
sS'C#CCC(=O)OCC'
p2248
I1
ssS'CC(C)(C)OC(=O)NO.Cc1ccccc1C(=O)Cl>>Cc1ccccc1C(=O)ONC(=O)OC(C)(C)C'
p2249
(dp2250
S'CC(C)(C)OC(=O)NO'
p2251
I-1
sS'Cc1ccccc1C(=O)Cl'
p2252
I-1
sg1370
I1
ssS'COC(=O)[C@H](CC#Cc1ccccc1N)NC(=O)OCc1ccccc1>>COC(=O)[C@H](Cc1cc2ccccc2[nH]1)NC(=O)OCc1ccccc1'
p2253
(dp2254
g1826
I1
sg1866
I-1
ssS'CC(C)(C)S(=O)NC(Cc1c[nH]c2ccccc12)C(N)=O>>CC(C)(C)S(=O)NC(C#N)Cc1c[nH]c2ccccc12'
p2255
(dp2256
g403
I-1
sS'CC(C)(C)S(=O)NC(C#N)Cc1c[nH]c2ccccc12'
p2257
I1
ssS'CC(C)(C)OC(N)=O.COC(=O)Cc1ccccc1Br>>COC(=O)Cc1ccccc1NC(=O)OC(C)(C)C'
p2258
(dp2259
S'CC(C)(C)OC(N)=O'
p2260
I-1
sS'COC(=O)Cc1ccccc1Br'
p2261
I-1
sg359
I1
ssS'OC(Cc1ccc(Cl)nc1)c1cc2cc(OC(F)(F)F)ccc2[nH]1>>OC(Cc1cccnc1)c1cc2cc(OC(F)(F)F)ccc2[nH]1'
p2262
(dp2263
g308
I-1
sg658
I1
ssS'C#CC[C@H](N)C(=O)O.CO>>C#CC[C@H](N)C(=O)OC'
p2264
(dp2265
S'C#CC[C@H](N)C(=O)O'
p2266
I-1
sS'CO'
p2267
I-1
sS'C#CC[C@H](N)C(=O)OC'
p2268
I1
ssS'BrCc1ccccc1.Cn1cc(CC(NC(=O)OC(C)(C)C)C(=O)O)c2ccccc21>>Cn1cc(CC(NC(=O)OC(C)(C)C)C(=O)OCc2ccccc2)c2ccccc21'
p2269
(dp2270
S'BrCc1ccccc1'
p2271
I-1
sg38
I1
sS'Cn1cc(CC(NC(=O)OC(C)(C)C)C(=O)O)c2ccccc21'
p2272
I-1
ssS'O=Cc1c(C(O)Cc2cccnc2)[nH]c2ccc(OC(F)(F)F)cc12>>O=Cc1c(C(=O)Cc2cccnc2)[nH]c2ccc(OC(F)(F)F)cc12'
p2273
(dp2274
S'O=Cc1c(C(O)Cc2cccnc2)[nH]c2ccc(OC(F)(F)F)cc12'
p2275
I-1
sg1937
I1
ssS'CCOC(=O)Nc1ccccc1C#CCC#N>>CCOC(=O)n1c(CC#N)cc2ccccc21'
p2276
(dp2277
g832
I1
sS'CCOC(=O)Nc1ccccc1C#CCC#N'
p2278
I-1
ssS'N#CNc1ccccc1[N+](=O)[O-]>>N=C(N)Nc1ccccc1[N+](=O)[O-]'
p2279
(dp2280
g9
I1
sg86
I-1
ssS'CC(C(O)c1ccccc1)N(C)C(=O)C(Cc1cc2ccccc2[nH]1)NC(=O)OCc1ccccc1>>CC(C(O)c1ccccc1)N(C)C(=O)C(N)Cc1cc2ccccc2[nH]1'
p2281
(dp2282
S'CC(C(O)c1ccccc1)N(C)C(=O)C(Cc1cc2ccccc2[nH]1)NC(=O)OCc1ccccc1'
p2283
I-1
sg407
I1
ssS'N#Cc1cc(OC(F)(F)F)ccc1[N+](=O)[O-]>>O=Cc1cc(OC(F)(F)F)ccc1[N+](=O)[O-]'
p2284
(dp2285
g204
I1
sS'N#Cc1cc(OC(F)(F)F)ccc1[N+](=O)[O-]'
p2286
I-1
ssS'CCOC(=O)C(Cc1cn(C)c2ccccc12)NC(=O)OC(C)(C)C>>Cn1cc(CC(NC(=O)OC(C)(C)C)C(=O)O)c2ccccc21'
p2287
(dp2288
g490
I1
sg1623
I-1
ssS'COC(=O)C(CC#Cc1ccccc1N)NC(=O)OCc1ccccc1>>COC(=O)C(Cc1cc2ccccc2[nH]1)NC(=O)OCc1ccccc1'
p2289
(dp2290
S'COC(=O)C(CC#Cc1ccccc1N)NC(=O)OCc1ccccc1'
p2291
I-1
sg581
I1
ssS'COC(=O)NC(Cc1c[nH]c2ccccc12)C(=O)O>>NC(Cc1c[nH]c2ccccc12)C(=O)O'
p2292
(dp2293
g1304
I-1
sg499
I1
ssS'CC(C)(C)OC(=O)Cc1cc2ccccc2[nH]1>>NC(=O)Cc1cc2ccccc2[nH]1'
p2294
(dp2295
g1106
I-1
sg48
I1
ssS'C[Si](C)(C)C#Cc1cc(OC(F)(F)F)ccc1N>>FC(F)(F)Oc1ccc2[nH]ccc2c1'
p2296
(dp2297
g1197
I1
sS'C[Si](C)(C)C#Cc1cc(OC(F)(F)F)ccc1N'
p2298
I-1
ssS'Brc1cccnc1.CC(C)(C)[Si](C)(C)OC(C=O)c1cc2cc(OC(F)(F)F)ccc2[nH]1>>CC(C)(C)[Si](C)(C)OC(c1cc2cc(OC(F)(F)F)ccc2[nH]1)C(O)c1cccnc1'
p2299
(dp2300
S'CC(C)(C)[Si](C)(C)OC(C=O)c1cc2cc(OC(F)(F)F)ccc2[nH]1'
p2301
I-1
sS'CC(C)(C)[Si](C)(C)OC(c1cc2cc(OC(F)(F)F)ccc2[nH]1)C(O)c1cccnc1'
p2302
I1
sS'Brc1cccnc1'
p2303
I-1
ssS'c1ccc2[nH]ccc2c1>>Ic1c[nH]c2ccccc12'
p2304
(dp2305
S'Ic1c[nH]c2ccccc12'
p2306
I1
sS'c1ccc2[nH]ccc2c1'
p2307
I-1
ssS'CC(C)(C)OC(=O)OC(=O)OC(C)(C)C.Cn1cc(CC(N)C(=O)O)c2ccccc21>>Cn1cc(CC(NC(=O)OC(C)(C)C)C(=O)O)c2ccccc21'
p2308
(dp2309
S'Cn1cc(CC(N)C(=O)O)c2ccccc21'
p2310
I-1
sg176
I1
sS'CC(C)(C)OC(=O)OC(=O)OC(C)(C)C'
p2311
I-1
ssS'C#CCCNC(=O)OC(C)(C)C.Nc1ccccc1I>>CC(C)(C)OC(=O)NCCC#Cc1ccccc1N'
p2312
(dp2313
S'C#CCCNC(=O)OC(C)(C)C'
p2314
I-1
sS'Nc1ccccc1I'
p2315
I-1
sS'CC(C)(C)OC(=O)NCCC#Cc1ccccc1N'
p2316
I1
ssS'C=CCOC(=O)CN=C(c1ccccc1)c1ccccc1.Cn1cc(CBr)c2ccccc21>>C=CCOC(=O)C(Cc1cn(C)c2ccccc12)N=C(c1ccccc1)c1ccccc1'
p2317
(dp2318
S'Cn1cc(CBr)c2ccccc21'
p2319
I-1
sS'C=CCOC(=O)CN=C(c1ccccc1)c1ccccc1'
p2320
I-1
sg65
I1
ssS'COC(=O)C(Cc1cc2ccccc2[nH]1)NC(=O)OC(C)(C)C>>CC(C)(C)OC(=O)NC(Cc1cc2ccccc2[nH]1)C(N)=O'
p2321
(dp2322
g2216
I1
sS'COC(=O)C(Cc1cc2ccccc2[nH]1)NC(=O)OC(C)(C)C'
p2323
I-1
ssS'CC=O.N[C@@H](Cc1c[nH]c2ccccc12)C(=O)O>>CC1NC(C(=O)O)Cc2c1[nH]c1ccccc21'
p2324
(dp2325
S'CC1NC(C(=O)O)Cc2c1[nH]c1ccccc21'
p2326
I1
sS'CC=O'
p2327
I-1
sS'N[C@@H](Cc1c[nH]c2ccccc12)C(=O)O'
p2328
I-1
ssS'Cc1ccc(S(=O)(=O)N2C(=O)N(C)C(=O)C2CC2C(=O)Nc3ccccc32)cc1>>Cc1ccc(S(=O)(=O)N2C(=O)N(C)C(=O)C2CC2CNc3ccccc32)cc1'
p2329
(dp2330
g1209
I1
sg315
I-1
ssS'c1cncc(CC2CO2)c1>>OCC(O)Cc1cccnc1'
p2331
(dp2332
g167
I-1
sg1786
I1
ssS'Nc1ccc(OC(F)(F)F)cc1C=C(Br)Br>>FC(F)(F)Oc1ccc2[nH]c(Br)cc2c1'
p2333
(dp2334
g373
I1
sS'Nc1ccc(OC(F)(F)F)cc1C=C(Br)Br'
p2335
I-1
ssS'CC(=O)OCc1c[nH]c2ccccc12.CI>>CC(=O)OCc1cn(C)c2ccccc12'
p2336
(dp2337
S'CC(=O)OCc1cn(C)c2ccccc12'
p2338
I1
sS'CI'
p2339
I-1
sS'CC(=O)OCc1c[nH]c2ccccc12'
p2340
I-1
ssS'CC(C)(C)OC(=O)OC(=O)OC(C)(C)C.COC(=O)C(N)Cc1cn(C)c2ccccc12>>Cn1cc(CC(NC(=O)OC(C)(C)C)C(=O)O)c2ccccc21'
p2341
(dp2342
S'COC(=O)C(N)Cc1cn(C)c2ccccc12'
p2343
I-1
sg176
I1
sS'CC(C)(C)OC(=O)OC(=O)OC(C)(C)C'
p2344
I-1
ssS'CC(C)(C)OC(=O)NC(CC#Cc1ccccc1N)C(=O)OCc1ccccc1>>CC(C)(C)OC(=O)NC(Cc1cc2ccccc2[nH]1)C(=O)OCc1ccccc1'
p2345
(dp2346
g722
I1
sS'CC(C)(C)OC(=O)NC(CC#Cc1ccccc1N)C(=O)OCc1ccccc1'
p2347
I-1
ssS'Nc1ccccc1[N+](=O)[O-]>>Nc1nc2ccccc2[n+]([O-])n1'
p2348
(dp2349
S'Nc1ccccc1[N+](=O)[O-]'
p2350
I-1
sg1703
I1
ssS'COC(=O)C(N)Cc1cn(C)c2ccccc12.O=CO>>COC(=O)C(Cc1cn(C)c2ccccc12)NC=O'
p2351
(dp2352
S'COC(=O)C(N)Cc1cn(C)c2ccccc12'
p2353
I-1
sS'O=CO'
p2354
I-1
sg1796
I1
ssS'CC(C)(C)[Si](C)(C)OC(Cc1cc2cc(OC(F)(F)F)ccc2[nH]1)c1cccnc1>>OC(Cc1cc2cc(OC(F)(F)F)ccc2[nH]1)c1cccnc1'
p2355
(dp2356
g1227
I1
sg441
I-1
ssS'Cn1cc(CC(C#N)N=C(c2ccccc2)c2ccccc2)c2ccccc21>>Cn1cc(CC(N)C#N)c2ccccc21'
p2357
(dp2358
S'Cn1cc(CC(N)C#N)c2ccccc21'
p2359
I1
sS'Cn1cc(CC(C#N)N=C(c2ccccc2)c2ccccc2)c2ccccc21'
p2360
I-1
ssS'CCSC(=O)Cc1cccnc1>>O=CCc1cccnc1'
p2361
(dp2362
g1911
I-1
sg19
I1
ssS'O=C(O)Cc1cc2ccccc2[nH]1>>O=C(Cl)Cc1cc2ccccc2[nH]1'
p2363
(dp2364
g1718
I1
sS'O=C(O)Cc1cc2ccccc2[nH]1'
p2365
I-1
ssS'CC(C)(C)OC(=O)C(N)Cc1c[nH]c2ccccc12.CN=C=S>>CNC(=S)NC(Cc1c[nH]c2ccccc12)C(=O)OC(C)(C)C'
p2366
(dp2367
S'CC(C)(C)OC(=O)C(N)Cc1c[nH]c2ccccc12'
p2368
I-1
sg1316
I1
sS'CN=C=S'
p2369
I-1
ssS'C#CC[C@H](N)C(=O)O.O=C(Cl)OCc1ccccc1>>C#CC[C@H](NC(=O)OCc1ccccc1)C(=O)O'
p2370
(dp2371
S'C#CC[C@H](N)C(=O)O'
p2372
I-1
sS'C#CC[C@H](NC(=O)OCc1ccccc1)C(=O)O'
p2373
I1
sS'O=C(Cl)OCc1ccccc1'
p2374
I-1
ssS'CO.Cn1cc(CC(NC(=O)OCc2ccccc2)C(=O)O)c2ccccc21>>COC(=O)C(Cc1cn(C)c2ccccc12)NC(=O)OCc1ccccc1'
p2375
(dp2376
g1085
I1
sS'Cn1cc(CC(NC(=O)OCc2ccccc2)C(=O)O)c2ccccc21'
p2377
I-1
sS'CO'
p2378
I-1
ssS'OCCc1cc2ccccc2[nH]1>>ClCCc1cc2ccccc2[nH]1'
p2379
(dp2380
S'ClCCc1cc2ccccc2[nH]1'
p2381
I1
sg1184
I-1
ssS'CC(C)(C)OC(=O)OC(=O)OC(C)(C)C.Cc1ccc(S(=O)(=O)N2C(=O)NC(=O)C2Cc2c[nH]c3ccccc23)cc1>>Cc1ccc(S(=O)(=O)N2C(=O)NC(=O)C2Cc2cn(C(=O)OC(C)(C)C)c3ccccc23)cc1'
p2382
(dp2383
S'Cc1ccc(S(=O)(=O)N2C(=O)NC(=O)C2Cc2cn(C(=O)OC(C)(C)C)c3ccccc23)cc1'
p2384
I1
sS'CC(C)(C)OC(=O)OC(=O)OC(C)(C)C'
p2385
I-1
sS'Cc1ccc(S(=O)(=O)N2C(=O)NC(=O)C2Cc2c[nH]c3ccccc23)cc1'
p2386
I-1
ssS'CC(=O)n1c(CCN2C(=O)c3ccccc3C2=O)cc2ccccc21>>O=C1c2ccccc2C(=O)N1CCc1cc2ccccc2[nH]1'
p2387
(dp2388
g502
I1
sS'CC(=O)n1c(CCN2C(=O)c3ccccc3C2=O)cc2ccccc21'
p2389
I-1
ssS'CON(C)C(=O)C(Cc1cn(C)c2ccccc12)NC(=O)OC(C)(C)C>>Cn1cc(CC(C=O)NC(=O)OC(C)(C)C)c2ccccc21'
p2390
(dp2391
g1396
I-1
sg736
I1
ssS'C#CC(Cc1cccnc1)O[Si](C)(C)C(C)(C)C.Nc1ccc(OC(F)(F)F)cc1I>>CC(C)(C)[Si](C)(C)OC(C#Cc1cc(OC(F)(F)F)ccc1N)Cc1cccnc1'
p2392
(dp2393
g553
I1
sS'C#CC(Cc1cccnc1)O[Si](C)(C)C(C)(C)C'
p2394
I-1
sS'Nc1ccc(OC(F)(F)F)cc1I'
p2395
I-1
ssS'COC(=O)C(Cc1cn(C)c2ccccc12)NC(=O)c1ccccc1>>Cn1cc(CC(NC(=O)c2ccccc2)C(=O)O)c2ccccc21'
p2396
(dp2397
g3
I-1
sg645
I1
ssS'CN(C)C=O.FC(F)(F)Oc1ccc2[nH]ccc2c1>>O=Cc1c[nH]c2ccc(OC(F)(F)F)cc12'
p2398
(dp2399
S'FC(F)(F)Oc1ccc2[nH]ccc2c1'
p2400
I-1
sS'CN(C)C=O'
p2401
I-1
sg773
I1
ssS'Cn1cc(CC(NC(=O)OC(C)(C)C)C(=O)O)c2ccccc21>>COC(=O)C(Cc1cn(C)c2ccccc12)NC(=O)OC(C)(C)C'
p2402
(dp2403
g95
I1
sS'Cn1cc(CC(NC(=O)OC(C)(C)C)C(=O)O)c2ccccc21'
p2404
I-1
ssS'FC(F)(F)Oc1ccc2[nH]ccc2c1>>FC(F)(F)Oc1ccc2[nH]cc(Br)c2c1'
p2405
(dp2406
S'FC(F)(F)Oc1ccc2[nH]ccc2c1'
p2407
I-1
sS'FC(F)(F)Oc1ccc2[nH]cc(Br)c2c1'
p2408
I1
ssS'C=O.CNC.Cn1ccc2ccccc21>>CN(C)Cc1cn(C)c2ccccc12'
p2409
(dp2410
S'C=O'
p2411
I-1
sg662
I1
sS'CNC'
p2412
I-1
sS'Cn1ccc2ccccc21'
p2413
I-1
ssS'C=CCOC(=O)CN.O=C(c1ccccc1)c1ccccc1>>C=CCOC(=O)CN=C(c1ccccc1)c1ccccc1'
p2414
(dp2415
S'C=CCOC(=O)CN=C(c1ccccc1)c1ccccc1'
p2416
I1
sS'C=CCOC(=O)CN'
p2417
I-1
sS'O=C(c1ccccc1)c1ccccc1'
p2418
I-1
ssS'CC(=O)OC(C)=O.NC(Cc1cc2ccccc2[nH]1)C(=O)O>>CC(=O)NC(Cc1cc2ccccc2[nH]1)C(=O)O'
p2419
(dp2420
g142
I1
sS'CC(=O)OC(C)=O'
p2421
I-1
sS'NC(Cc1cc2ccccc2[nH]1)C(=O)O'
p2422
I-1
ssS'COC(=O)C(Cc1cn(C)c2ccccc12)NC(=O)OC(C)(C)C>>COC(=O)C(N)Cc1cn(C)c2ccccc12'
p2423
(dp2424
g27
I1
sg1699
I-1
ssS'CC(C)(C)OC(=O)NC(=Cc1c[nH]c2ccccc12)C(=O)OC(C)(C)C>>CC(C)(C)OC(=O)NC(Cc1c[nH]c2ccccc12)C(=O)OC(C)(C)C'
p2425
(dp2426
g1390
I-1
sS'CC(C)(C)OC(=O)NC(Cc1c[nH]c2ccccc12)C(=O)OC(C)(C)C'
p2427
I1
ssS'CCS.O=C(O)Cc1cccnc1>>CCSC(=O)Cc1cccnc1'
p2428
(dp2429
S'O=C(O)Cc1cccnc1'
p2430
I-1
sg1911
I1
sS'CCS'
p2431
I-1
ssS'C=CCOC(=O)NC(Cc1cn(C)c2ccccc12)C(=O)O.CI>>C=CCOC(=O)NC(Cc1cn(C)c2ccccc12)C(=O)OC'
p2432
(dp2433
S'CI'
p2434
I-1
sS'C=CCOC(=O)NC(Cc1cn(C)c2ccccc12)C(=O)O'
p2435
I-1
sg2083
I1
ssS'CCOC(=O)C(NC(C)=O)C(=O)O.OCc1ccccc1>>CCOC(=O)C(NC(C)=O)C(=O)OCc1ccccc1'
p2436
(dp2437
S'OCc1ccccc1'
p2438
I-1
sS'CCOC(=O)C(NC(C)=O)C(=O)O'
p2439
I-1
sg2189
I1
ssS'N#CCCN1C(=O)c2ccccc2C1=O>>O=C(O)CCN1C(=O)c2ccccc2C1=O'
p2440
(dp2441
S'N#CCCN1C(=O)c2ccccc2C1=O'
p2442
I-1
sS'O=C(O)CCN1C(=O)c2ccccc2C1=O'
p2443
I1
ssS'COC(=O)[C@H](Cc1cc2ccccc2[nH]1)NC(C)=O>>N[C@@H](Cc1cc2ccccc2[nH]1)C(=O)O'
p2444
(dp2445
g239
I1
sg789
I-1
ssS'CC(=O)NCCc1cccc(OC(F)(F)F)c1>>CC(=O)NCCc1cc(OC(F)(F)F)ccc1Br'
p2446
(dp2447
g2137
I1
sg683
I-1
ssS'Cc1ccc(S(=O)(=O)N(CCI)c2ccc(OC(F)(F)F)cc2I)cc1>>Cc1ccc(S(=O)(=O)N2CCc3cc(OC(F)(F)F)ccc32)cc1'
p2448
(dp2449
S'Cc1ccc(S(=O)(=O)N(CCI)c2ccc(OC(F)(F)F)cc2I)cc1'
p2450
I-1
sg1288
I1
ssS'CCOC(=O)C(Cc1cn(C)c2ccccc12)(NC(C)=O)C(=O)OCC>>CC(=O)NC(Cc1cn(C)c2ccccc12)C(=O)O'
p2451
(dp2452
S'CCOC(=O)C(Cc1cn(C)c2ccccc12)(NC(C)=O)C(=O)OCC'
p2453
I-1
sS'CC(=O)NC(Cc1cn(C)c2ccccc12)C(=O)O'
p2454
I1
ssS'CC(C)(C)OC(=O)OC(=O)OC(C)(C)C.Cn1cc(CC(N)CO)c2ccccc21>>Cn1cc(CC(CO)NC(=O)OC(C)(C)C)c2ccccc21'
p2455
(dp2456
S'Cn1cc(CC(N)CO)c2ccccc21'
p2457
I-1
sS'CC(C)(C)OC(=O)OC(=O)OC(C)(C)C'
p2458
I-1
sg400
I1
ssS'CI.COC(=O)C(Cc1c[nH]c2ccccc12)NC(=O)OCc1ccccc1>>COC(=O)C(Cc1cn(C)c2ccccc12)NC(=O)OCc1ccccc1'
p2459
(dp2460
g1085
I1
sS'CI'
p2461
I-1
sS'COC(=O)C(Cc1c[nH]c2ccccc12)NC(=O)OCc1ccccc1'
p2462
I-1
ssS'N#Cc1c[nH]c2ccc(OC(F)(F)F)cc12.O=CCc1cccnc1>>N#Cc1c(C(O)Cc2cccnc2)[nH]c2ccc(OC(F)(F)F)cc12'
p2463
(dp2464
S'N#Cc1c[nH]c2ccc(OC(F)(F)F)cc12'
p2465
I-1
sg1900
I1
sS'O=CCc1cccnc1'
p2466
I-1
ssS'CC(C)(C)OC(=O)OC(=O)OC(C)(C)C.Cn1cc(CC(N)C(=O)OCc2ccccc2)c2ccccc21>>Cn1cc(CC(NC(=O)OC(C)(C)C)C(=O)OCc2ccccc2)c2ccccc21'
p2467
(dp2468
g38
I1
sS'Cn1cc(CC(N)C(=O)OCc2ccccc2)c2ccccc21'
p2469
I-1
sS'CC(C)(C)OC(=O)OC(=O)OC(C)(C)C'
p2470
I-1
ssS'COC(=O)C(OC)OC>>COC(OC)C(=O)O'
p2471
(dp2472
S'COC(=O)C(OC)OC'
p2473
I-1
sS'COC(OC)C(=O)O'
p2474
I1
ssS'O=C1CNC(=O)N1.O=Cc1c[nH]c2ccccc12>>O=C1NC(=O)/C(=C\\c2c[nH]c3ccccc23)N1'
p2475
(dp2476
S'O=Cc1c[nH]c2ccccc12'
p2477
I-1
sS'O=C1CNC(=O)N1'
p2478
I-1
sS'O=C1NC(=O)/C(=C\\c2c[nH]c3ccccc23)N1'
p2479
I1
ssS'CCOC(=O)Cl.O=C1NC(=O)c2ccccc21>>CCOC(=O)N1C(=O)c2ccccc2C1=O'
p2480
(dp2481
S'O=C1NC(=O)c2ccccc21'
p2482
I-1
sS'CCOC(=O)N1C(=O)c2ccccc2C1=O'
p2483
I1
sS'CCOC(=O)Cl'
p2484
I-1
ssS'CON(C)C(=O)Cc1cccnc1.FC(F)(F)Oc1ccc2[nH]c(Br)cc2c1>>O=C(Cc1cccnc1)c1cc2cc(OC(F)(F)F)ccc2[nH]1'
p2485
(dp2486
S'CON(C)C(=O)Cc1cccnc1'
p2487
I-1
sg1883
I1
sS'FC(F)(F)Oc1ccc2[nH]c(Br)cc2c1'
p2488
I-1
ssS'C#C[Si](C)(C)C.Nc1ccc(OC(F)(F)F)cc1I>>C#Cc1cc(OC(F)(F)F)ccc1N'
p2489
(dp2490
S'C#Cc1cc(OC(F)(F)F)ccc1N'
p2491
I1
sS'C#C[Si](C)(C)C'
p2492
I-1
sS'Nc1ccc(OC(F)(F)F)cc1I'
p2493
I-1
ssS'CC(=O)OC(C)=O.OC(c1cccnc1)C(O)c1cc2cc(OC(F)(F)F)ccc2[nH]1>>CC(=O)OC(c1cc2cc(OC(F)(F)F)ccc2[nH]1)C(O)c1cccnc1'
p2494
(dp2495
g959
I1
sS'CC(=O)OC(C)=O'
p2496
I-1
sS'OC(c1cccnc1)C(O)c1cc2cc(OC(F)(F)F)ccc2[nH]1'
p2497
I-1
ssS'C=[N+](C)C.FC(F)(F)Oc1ccc2[nH]ccc2c1>>CN(C)Cc1c[nH]c2ccc(OC(F)(F)F)cc12'
p2498
(dp2499
g1230
I1
sS'FC(F)(F)Oc1ccc2[nH]ccc2c1'
p2500
I-1
sS'C=[N+](C)C'
p2501
I-1
ssS'CC(C)(C)[Si](C)(C)OC(C#Cc1cc(OC(F)(F)F)ccc1N)Cc1cccnc1>>CC(C)(C)[Si](C)(C)OC(Cc1cccnc1)c1cc2cc(OC(F)(F)F)ccc2[nH]1'
p2502
(dp2503
g659
I1
sg553
I-1
ssS'C#CCC(N)C(=O)OCC.CC(C)(C)OC(=O)Cl>>C#CCC(NC(=O)OC(C)(C)C)C(=O)OCC'
p2504
(dp2505
S'CC(C)(C)OC(=O)Cl'
p2506
I-1
sS'C#CCC(N)C(=O)OCC'
p2507
I-1
sg198
I1
ssS'CNOC.O=C(O)Cc1cccnc1>>CON(C)C(=O)Cc1cccnc1'
p2508
(dp2509
g850
I1
sS'CNOC'
p2510
I-1
sS'O=C(O)Cc1cccnc1'
p2511
I-1
ssS'CN.O=C(Cl)Cl>>CN=C=O'
p2512
(dp2513
S'O=C(Cl)Cl'
p2514
I-1
sS'CN'
p2515
I-1
sg44
I1
ssS'O=[N+]([O-])c1ccc(OC(F)(F)F)cc1C=C(Br)Br>>Nc1ccc(OC(F)(F)F)cc1C=C(Br)Br'
p2516
(dp2517
g2335
I1
sS'O=[N+]([O-])c1ccc(OC(F)(F)F)cc1C=C(Br)Br'
p2518
I-1
ssS'CC(=O)OCc1cn(C)c2ccccc12>>Cn1cc(CO)c2ccccc21'
p2519
(dp2520
S'Cn1cc(CO)c2ccccc21'
p2521
I1
sg2338
I-1
ssS'C#CCC(NC(=O)OC)C(=O)OC.Nc1ccccc1I>>COC(=O)NC(CC#Cc1ccccc1N)C(=O)OC'
p2522
(dp2523
S'Nc1ccccc1I'
p2524
I-1
sS'C#CCC(NC(=O)OC)C(=O)OC'
p2525
I-1
sg1057
I1
ssS'O=C(Cl)C(=O)Cl.O=C(O)Cc1ccccc1[N+](=O)[O-]>>O=C(Cl)Cc1ccccc1[N+](=O)[O-]'
p2526
(dp2527
S'O=C(O)Cc1ccccc1[N+](=O)[O-]'
p2528
I-1
sS'O=C(Cl)Cc1ccccc1[N+](=O)[O-]'
p2529
I1
sS'O=C(Cl)C(=O)Cl'
p2530
I-1
ssS'COC(=O)C(CI)NC(=O)OC(C)(C)C.C[Si](C)(C)C#CBr>>COC(=O)C(CC#C[Si](C)(C)C)NC(=O)OC(C)(C)C'
p2531
(dp2532
S'C[Si](C)(C)C#CBr'
p2533
I-1
sS'COC(=O)C(CC#C[Si](C)(C)C)NC(=O)OC(C)(C)C'
p2534
I1
sS'COC(=O)C(CI)NC(=O)OC(C)(C)C'
p2535
I-1
ssS'CON(C)C(=O)CC#N.Cc1ccccc1NC(=O)OC(C)(C)C>>CC(C)(C)OC(=O)Nc1ccccc1CC(=O)CC#N'
p2536
(dp2537
S'Cc1ccccc1NC(=O)OC(C)(C)C'
p2538
I-1
sS'CON(C)C(=O)CC#N'
p2539
I-1
sg350
I1
ssS'CC1c2c(c3ccc(Br)c(Br)c3n2C(=O)OC(C)(C)C)CC2C(=O)N(C)C(=O)N21>>CC1c2[nH]c3c(Br)c(Br)ccc3c2CC2C(=O)N(C)C(=O)N21'
p2540
(dp2541
g1049
I-1
sg785
I1
ssS'CC(C)(C)[Si](C)(C)Cl.CC(C)(O)CO>>CC(C)(O)CO[Si](C)(C)C(C)(C)C'
p2542
(dp2543
S'CC(C)(O)CO[Si](C)(C)C(C)(C)C'
p2544
I1
sS'CC(C)(O)CO'
p2545
I-1
sS'CC(C)(C)[Si](C)(C)Cl'
p2546
I-1
ssS'NC(Cc1cc2ccccc2[nH]1)C(=O)O.O=C(Cl)c1ccccc1>>O=C(NC(Cc1cc2ccccc2[nH]1)C(=O)O)c1ccccc1'
p2547
(dp2548
g2001
I1
sS'O=C(Cl)c1ccccc1'
p2549
I-1
sS'NC(Cc1cc2ccccc2[nH]1)C(=O)O'
p2550
I-1
ssS'C#CCCN1C(=O)c2ccccc2C1=O.O=S(=O)(Nc1ccccc1I)c1ccccc1>>O=C1c2ccccc2C(=O)N1CCc1cc2ccccc2n1S(=O)(=O)c1ccccc1'
p2551
(dp2552
S'O=S(=O)(Nc1ccccc1I)c1ccccc1'
p2553
I-1
sS'C#CCCN1C(=O)c2ccccc2C1=O'
p2554
I-1
sg503
I1
ssS'C[Si](C)(C)C#Cc1cc(OC(F)(F)F)ccc1N>>C#Cc1cc(OC(F)(F)F)ccc1N'
p2555
(dp2556
g2491
I1
sg1817
I-1
ssS'Cc1ccc(S(=O)(=O)Nc2ccccc2C#CCC#N)cc1>>Cc1ccc(S(=O)(=O)n2c(CC#N)cc3ccccc32)cc1'
p2557
(dp2558
S'Cc1ccc(S(=O)(=O)n2c(CC#N)cc3ccccc32)cc1'
p2559
I1
sS'Cc1ccc(S(=O)(=O)Nc2ccccc2C#CCC#N)cc1'
p2560
I-1
ssS'C#CCCN1C(=O)c2ccccc2C1=O.Cc1ccc(S(=O)(=O)Nc2ccccc2I)cc1>>Cc1ccc(S(=O)(=O)n2c(CCN3C(=O)c4ccccc4C3=O)cc3ccccc32)cc1'
p2561
(dp2562
S'Cc1ccc(S(=O)(=O)Nc2ccccc2I)cc1'
p2563
I-1
sS'C#CCCN1C(=O)c2ccccc2C1=O'
p2564
I-1
sg1579
I1
ssS'CCO.O=C(O)c1c[nH]c2ccc(OC(F)(F)F)cc12>>CCOC(=O)c1c[nH]c2ccc(OC(F)(F)F)cc12'
p2565
(dp2566
S'CCO'
p2567
I-1
sS'O=C(O)c1c[nH]c2ccc(OC(F)(F)F)cc12'
p2568
I-1
sg1426
I1
ssS'c1ccc(CNCCc2cc3ccccc3[nH]2)cc1>>NCCc1cc2ccccc2[nH]1'
p2569
(dp2570
S'c1ccc(CNCCc2cc3ccccc3[nH]2)cc1'
p2571
I-1
sg78
I1
ssS'CC(=O)OC(C)=O.COC(=O)C(N)Cc1c[nH]c2ccccc12>>COC(=O)C(Cc1c[nH]c2ccccc12)NC(C)=O'
p2572
(dp2573
S'COC(=O)C(Cc1c[nH]c2ccccc12)NC(C)=O'
p2574
I1
sS'COC(=O)C(N)Cc1c[nH]c2ccccc12'
p2575
I-1
sS'CC(=O)OC(C)=O'
p2576
I-1
ssS'C#CC[C@H](N)C(=O)OC.CC(=O)OC(C)=O>>C#CC[C@H](NC(C)=O)C(=O)OC'
p2577
(dp2578
S'C#CC[C@H](N)C(=O)OC'
p2579
I-1
sS'C#CC[C@H](NC(C)=O)C(=O)OC'
p2580
I1
sS'CC(=O)OC(C)=O'
p2581
I-1
ssS'COC(=O)Cc1cc2ccccc2[nH]1>>NC(=O)Cc1cc2ccccc2[nH]1'
p2582
(dp2583
S'COC(=O)Cc1cc2ccccc2[nH]1'
p2584
I-1
sg48
I1
ssS'O=C(Cc1cc2cc(OC(F)(F)F)ccc2[nH]1)c1cccnc1>>O=C(c1cccnc1)C(O)c1cc2cc(OC(F)(F)F)ccc2[nH]1'
p2585
(dp2586
g1226
I-1
sg135
I1
ssS'COCc1c[nH]c2ccccc12>>BrCc1c[nH]c2ccccc12'
p2587
(dp2588
S'COCc1c[nH]c2ccccc12'
p2589
I-1
sS'BrCc1c[nH]c2ccccc12'
p2590
I1
ssS'CCOC(=O)C(Cc1cn(C)c2ccccc12)NC(=O)OC(C)(C)C.NCCCCCNc1nc2ccccc2[n+]([O-])n1>>Cn1cc(CC(NC(=O)OC(C)(C)C)C(=O)NCCCCCNc2nc3ccccc3[n+]([O-])n2)c2ccccc21'
p2591
(dp2592
S'NCCCCCNc1nc2ccccc2[n+]([O-])n1'
p2593
I-1
sg937
I1
sS'CCOC(=O)C(Cc1cn(C)c2ccccc12)NC(=O)OC(C)(C)C'
p2594
I-1
ssS'O=C1c2ccccc2C(=O)N1CCC#Cc1ccccc1NS(=O)(=O)c1ccccc1>>O=C1c2ccccc2C(=O)N1CCc1cc2ccccc2n1S(=O)(=O)c1ccccc1'
p2595
(dp2596
g1222
I-1
sg503
I1
ssS'CC=O.NC(Cc1c[nH]c2ccccc12)C(=O)O>>CC1NC(C(=O)O)Cc2c1[nH]c1ccccc21'
p2597
(dp2598
g2326
I1
sS'CC=O'
p2599
I-1
sS'NC(Cc1c[nH]c2ccccc12)C(=O)O'
p2600
I-1
ssS'CCOC(=O)c1cn(C)c2ccccc12.CNC>>CN(C)C(=O)c1cn(C)c2ccccc12'
p2601
(dp2602
g663
I1
sS'CCOC(=O)c1cn(C)c2ccccc12'
p2603
I-1
sS'CNC'
p2604
I-1
ssS'C[Si](C)(C)Cl.Cc1ccccc1N>>Cc1ccccc1N[Si](C)(C)C'
p2605
(dp2606
S'Cc1ccccc1N'
p2607
I-1
sS'Cc1ccccc1N[Si](C)(C)C'
p2608
I1
sS'C[Si](C)(C)Cl'
p2609
I-1
ssS'CC1NC(C(=O)O)Cc2c1[nH]c1ccccc21.CN=C=O>>CC1c2[nH]c3ccccc3c2CC2C(=O)N(C)C(=O)N21'
p2610
(dp2611
S'CC1NC(C(=O)O)Cc2c1[nH]c1ccccc21'
p2612
I-1
sS'CN=C=O'
p2613
I-1
sg425
I1
ssS'CSC(=N)N.Nc1ccccc1[N+](=O)[O-]>>N=C(N)Nc1ccccc1[N+](=O)[O-]'
p2614
(dp2615
S'Nc1ccccc1[N+](=O)[O-]'
p2616
I-1
sg9
I1
sS'CSC(=N)N'
p2617
I-1
ssS'CON(C)C(=O)CCN1C(=O)c2ccccc2C1=O.Cc1ccccc1NC(=O)OC(C)(C)C>>CC(C)(C)OC(=O)Nc1ccccc1CC(=O)CCN1C(=O)c2ccccc2C1=O'
p2618
(dp2619
S'Cc1ccccc1NC(=O)OC(C)(C)C'
p2620
I-1
sg2231
I1
sS'CON(C)C(=O)CCN1C(=O)c2ccccc2C1=O'
p2621
I-1
ssS'C#CCC(NC(=O)OC(C)(C)C)C(=O)OC>>C#CCC(N)C(=O)OC'
p2622
(dp2623
S'C#CCC(NC(=O)OC(C)(C)C)C(=O)OC'
p2624
I-1
sg1959
I1
ssS'N#CN.Nc1ccccc1[N+](=O)[O-]>>N=C(N)Nc1ccccc1[N+](=O)[O-]'
p2625
(dp2626
S'Nc1ccccc1[N+](=O)[O-]'
p2627
I-1
sS'N#CN'
p2628
I-1
sg9
I1
ssS'CNOC.Cn1cc(CC(NC(=O)OCc2ccccc2)C(=O)O)c2ccccc21>>CON(C)C(=O)C(Cc1cn(C)c2ccccc12)NC(=O)OCc1ccccc1'
p2629
(dp2630
S'CNOC'
p2631
I-1
sS'Cn1cc(CC(NC(=O)OCc2ccccc2)C(=O)O)c2ccccc21'
p2632
I-1
sS'CON(C)C(=O)C(Cc1cn(C)c2ccccc12)NC(=O)OCc1ccccc1'
p2633
I1
ssS'BrCCCCCOC1CCCCO1.O=C1[N-]C(=O)c2ccccc21>>O=C1c2ccccc2C(=O)N1CCCCCOC1CCCCO1'
p2634
(dp2635
S'O=C1[N-]C(=O)c2ccccc21'
p2636
I-1
sg300
I1
sS'BrCCCCCOC1CCCCO1'
p2637
I-1
ssS'O=C(O)Cc1cc2ccccc2[nH]1.O=C(n1ccnc1)n1ccnc1>>NC(=O)Cc1cc2ccccc2[nH]1'
p2638
(dp2639
S'O=C(n1ccnc1)n1ccnc1'
p2640
I-1
sS'O=C(O)Cc1cc2ccccc2[nH]1'
p2641
I-1
sg48
I1
ssS'CN(C)C(=O)c1c[nH]c2ccc(OC(F)(F)F)cc12>>CN(C)Cc1c[nH]c2ccc(OC(F)(F)F)cc12'
p2642
(dp2643
g1230
I1
sS'CN(C)C(=O)c1c[nH]c2ccc(OC(F)(F)F)cc12'
p2644
I-1
ssS'CCOC(=O)c1cc2cc(OC(F)(F)F)ccc2[nH]1>>OCc1cc2cc(OC(F)(F)F)ccc2[nH]1'
p2645
(dp2646
g1156
I1
sS'CCOC(=O)c1cc2cc(OC(F)(F)F)ccc2[nH]1'
p2647
I-1
ssS'C[Si](C)(C)C#Cc1cc(OC(F)(F)F)ccc1NS(C)(=O)=O>>C#Cc1cc(OC(F)(F)F)ccc1NS(C)(=O)=O'
p2648
(dp2649
g871
I1
sg752
I-1
ssS'C#CC[C@H](NC(=O)OC(C)(C)C)C(=O)OC.Nc1ccccc1I>>COC(=O)[C@H](CC#Cc1ccccc1N)NC(=O)OC(C)(C)C'
p2650
(dp2651
S'C#CC[C@H](NC(=O)OC(C)(C)C)C(=O)OC'
p2652
I-1
sg528
I1
sS'Nc1ccccc1I'
p2653
I-1
ssS'N#CCCO.O=C1NC(=O)c2ccccc21>>N#CCCN1C(=O)c2ccccc2C1=O'
p2654
(dp2655
S'O=C1NC(=O)c2ccccc21'
p2656
I-1
sg2442
I1
sS'N#CCCO'
p2657
I-1
ssS'CCOC=O.COC(=O)C(N)Cc1cn(C)c2ccccc12>>COC(=O)C(Cc1cn(C)c2ccccc12)NC=O'
p2658
(dp2659
S'COC(=O)C(N)Cc1cn(C)c2ccccc12'
p2660
I-1
sS'COC(=O)C(Cc1cn(C)c2ccccc12)NC=O'
p2661
I1
sS'CCOC=O'
p2662
I-1
ssS'C#CCC(NC(=O)OC(C)(C)C)C(=O)OCc1ccccc1.Nc1ccccc1I>>CC(C)(C)OC(=O)NC(CC#Cc1ccccc1N)C(=O)OCc1ccccc1'
p2663
(dp2664
S'C#CCC(NC(=O)OC(C)(C)C)C(=O)OCc1ccccc1'
p2665
I-1
sg2347
I1
sS'Nc1ccccc1I'
p2666
I-1
ssS'COCCl.Ic1c[nH]c2ccccc12>>COCn1cc(I)c2ccccc21'
p2667
(dp2668
S'Ic1c[nH]c2ccccc12'
p2669
I-1
sS'COCCl'
p2670
I-1
sg1145
I1
ssS'CC(C)(C)O.Cn1cc(CC(NC(=O)OCc2ccccc2)C(=O)O)c2ccccc21>>Cn1cc(CC(NC(=O)OCc2ccccc2)C(=O)OC(C)(C)C)c2ccccc21'
p2671
(dp2672
S'CC(C)(C)O'
p2673
I-1
sS'Cn1cc(CC(NC(=O)OCc2ccccc2)C(=O)O)c2ccccc21'
p2674
I-1
sg1325
I1
ssS'COC(=O)c1cc(OC(F)(F)F)ccc1[N+](=O)[O-]>>O=[N+]([O-])c1ccc(OC(F)(F)F)cc1CO'
p2675
(dp2676
g203
I1
sg69
I-1
ssS'CC(=O)c1cc2ccccc2[nH]1>>O=C(CBr)c1cc2ccccc2[nH]1'
p2677
(dp2678
S'O=C(CBr)c1cc2ccccc2[nH]1'
p2679
I1
sS'CC(=O)c1cc2ccccc2[nH]1'
p2680
I-1
ssS'COC(=O)C1Cc2ccccc2N1.O=C(Cl)OCc1ccccc1>>COC(=O)C1Cc2ccccc2N1C(=O)OCc1ccccc1'
p2681
(dp2682
S'COC(=O)C1Cc2ccccc2N1'
p2683
I-1
sS'O=C(Cl)OCc1ccccc1'
p2684
I-1
sS'COC(=O)C1Cc2ccccc2N1C(=O)OCc1ccccc1'
p2685
I1
ssS'NC(Cc1cc2ccccc2[nH]1)C(=O)O>>NCCc1cc2ccccc2[nH]1'
p2686
(dp2687
g78
I1
sg61
I-1
ssS'CC(C)(C)S(=O)NC(C#N)Cc1c[nH]c2ccccc12>>N#CC(N)Cc1c[nH]c2ccccc12'
p2688
(dp2689
S'N#CC(N)Cc1c[nH]c2ccccc12'
p2690
I1
sg2257
I-1
ssS'CN1C(=O)NC(CC2C(=O)Nc3ccccc32)C1=O.O=C(Cl)OCc1ccccc1>>CN1C(=O)C(CC2C(=O)Nc3ccccc32)N(C(=O)OCc2ccccc2)C1=O'
p2691
(dp2692
S'CN1C(=O)NC(CC2C(=O)Nc3ccccc32)C1=O'
p2693
I-1
sg1646
I1
sS'O=C(Cl)OCc1ccccc1'
p2694
I-1
ssS'CNC.Cn1cc(C=O)c2ccccc21>>CN(C)Cc1cn(C)c2ccccc12'
p2695
(dp2696
g662
I1
sS'Cn1cc(C=O)c2ccccc21'
p2697
I-1
sS'CNC'
p2698
I-1
ssS'Cc1ccc(S(=O)(=O)N2C(=O)N(C)C(=O)C2Cc2cn(C(=O)OC(C)(C)C)c3ccccc23)cc1>>Cc1ccc(S(=O)(=O)N2C(=O)N(C)C(=O)C2Cc2c[nH]c3ccccc23)cc1'
p2699
(dp2700
g314
I1
sS'Cc1ccc(S(=O)(=O)N2C(=O)N(C)C(=O)C2Cc2cn(C(=O)OC(C)(C)C)c3ccccc23)cc1'
p2701
I-1
ssS'Cn1cc(CC(N)C#N)c2ccccc21>>Cn1cc(CC(N)C(N)=O)c2ccccc21'
p2702
(dp2703
g107
I1
sS'Cn1cc(CC(N)C#N)c2ccccc21'
p2704
I-1
ssS'CI.CI.NCc1c[nH]c2ccccc12>>CSC(=S)NCc1c[nH]c2ccccc12'
p2705
(dp2706
S'CSC(=S)NCc1c[nH]c2ccccc12'
p2707
I1
sS'CI'
p2708
I-1
sS'NCc1c[nH]c2ccccc12'
p2709
I-1
ssS'COC(=O)C(Cc1cn(C)c2ccccc12)N(C(=O)OC(C)(C)C)C(CO)c1ccccc1>>COC(=O)C(Cc1cn(C)c2ccccc12)N(C(=O)OC(C)(C)C)C(C=O)c1ccccc1'
p2710
(dp2711
S'COC(=O)C(Cc1cn(C)c2ccccc12)N(C(=O)OC(C)(C)C)C(CO)c1ccccc1'
p2712
I-1
sg120
I1
ssS'C#CC[C@H](NC(C)=O)C(=O)OC.O=[N+]([O-])c1ccccc1I>>COC(=O)[C@H](CC#Cc1ccccc1[N+](=O)[O-])NC(C)=O'
p2713
(dp2714
g1491
I1
sS'O=[N+]([O-])c1ccccc1I'
p2715
I-1
sS'C#CC[C@H](NC(C)=O)C(=O)OC'
p2716
I-1
ssS'Cn1cc(CC2NC(c3ccccc3)COC2=O)c2ccccc21>>Cn1cc(CC(N)C(=O)O)c2ccccc21'
p2717
(dp2718
S'Cn1cc(CC2NC(c3ccccc3)COC2=O)c2ccccc21'
p2719
I-1
sg431
I1
ssS'O=C(O)c1c(C(O)Cc2cccnc2)[nH]c2ccc(OC(F)(F)F)cc12>>OC(Cc1cccnc1)c1cc2cc(OC(F)(F)F)ccc2[nH]1'
p2720
(dp2721
S'O=C(O)c1c(C(O)Cc2cccnc2)[nH]c2ccc(OC(F)(F)F)cc12'
p2722
I-1
sg658
I1
ssS'CCOC(=O)C(Cc1c[nH]c2ccccc12)N=C=O.CN>>CCOC(=O)C(Cc1c[nH]c2ccccc12)NC(=O)NC'
p2723
(dp2724
S'CCOC(=O)C(Cc1c[nH]c2ccccc12)N=C=O'
p2725
I-1
sS'CN'
p2726
I-1
sS'CCOC(=O)C(Cc1c[nH]c2ccccc12)NC(=O)NC'
p2727
I1
ssS'C=CCO.Cn1cc(CC(N)C(=O)O)c2ccccc21>>C=CCOC(=O)C(N)Cc1cn(C)c2ccccc12'
p2728
(dp2729
S'C=CCO'
p2730
I-1
sg64
I1
sS'Cn1cc(CC(N)C(=O)O)c2ccccc21'
p2731
I-1
ssS'O=C(Cl)OCc1ccccc1.O=C(O)C1Cc2ccccc2N1>>O=C(O)C1Cc2ccccc2N1C(=O)OCc1ccccc1'
p2732
(dp2733
S'O=C(O)C1Cc2ccccc2N1'
p2734
I-1
sS'O=C(Cl)OCc1ccccc1'
p2735
I-1
sS'O=C(O)C1Cc2ccccc2N1C(=O)OCc1ccccc1'
p2736
I1
ssS'CC(=O)OC(C)(C)CO.CC(C)(C)[Si](C)(C)Cl>>CC(=O)OC(C)(C)CO[Si](C)(C)C(C)(C)C'
p2737
(dp2738
S'CC(=O)OC(C)(C)CO[Si](C)(C)C(C)(C)C'
p2739
I1
sS'CC(C)(C)[Si](C)(C)Cl'
p2740
I-1
sS'CC(=O)OC(C)(C)CO'
p2741
I-1
ssS'Cn1cc(CC(CO)NC(=O)OC(C)(C)C)c2ccccc21>>Cn1cc(CC(C=O)NC(=O)OC(C)(C)C)c2ccccc21'
p2742
(dp2743
g736
I1
sS'Cn1cc(CC(CO)NC(=O)OC(C)(C)C)c2ccccc21'
p2744
I-1
ssS'C=C(C)C.O=C(O)CC(=O)Cc1ccccc1[N+](=O)[O-]>>CC(C)(C)OC(=O)CC(=O)Cc1ccccc1[N+](=O)[O-]'
p2745
(dp2746
g1107
I1
sS'C=C(C)C'
p2747
I-1
sS'O=C(O)CC(=O)Cc1ccccc1[N+](=O)[O-]'
p2748
I-1
ssS'O=C1NC(=O)/C(=C\\c2c[nH]c3ccccc23)N1>>O=C1NC(=O)C(Cc2c[nH]c3ccccc23)N1'
p2749
(dp2750
g1822
I1
sg2479
I-1
ssS'NC(Cc1c[nH]c2ccccc12)C(=O)OCc1ccccc1.O=C(Cl)OCc1ccccc1>>O=C(NC(Cc1c[nH]c2ccccc12)C(=O)OCc1ccccc1)OCc1ccccc1'
p2751
(dp2752
S'NC(Cc1c[nH]c2ccccc12)C(=O)OCc1ccccc1'
p2753
I-1
sg994
I1
sS'O=C(Cl)OCc1ccccc1'
p2754
I-1
ssS'CC#N.COC(=O)Cc1ccccc1NC(=O)OC(C)(C)C>>CC(C)(C)OC(=O)Nc1ccccc1CC(=O)CC#N'
p2755
(dp2756
S'CC#N'
p2757
I-1
sg350
I1
sS'COC(=O)Cc1ccccc1NC(=O)OC(C)(C)C'
p2758
I-1
ssS'COC(=O)C(N)Cc1c[nH]c2ccccc12.O=C(Cl)OCc1ccccc1>>COC(=O)C(Cc1c[nH]c2ccccc12)NC(=O)OCc1ccccc1'
p2759
(dp2760
S'COC(=O)C(Cc1c[nH]c2ccccc12)NC(=O)OCc1ccccc1'
p2761
I1
sS'COC(=O)C(N)Cc1c[nH]c2ccccc12'
p2762
I-1
sS'O=C(Cl)OCc1ccccc1'
p2763
I-1
ssS'CC(C)(C)OC(=O)N[C@@H](CC#Cc1ccccc1N)C(=O)OCc1ccccc1>>CC(C)(C)OC(=O)N[C@@H](Cc1cc2ccccc2[nH]1)C(=O)OCc1ccccc1'
p2764
(dp2765
g111
I1
sg180
I-1
ssS'CN.O=C=O>>CN=C=O'
p2766
(dp2767
S'CN'
p2768
I-1
sS'O=C=O'
p2769
I-1
sg44
I1
ssS'CCOC(=O)c1c(Br)[nH]c2ccc(OC(F)(F)F)cc12.O=CCc1cccnc1>>CCOC(=O)c1c(C(O)Cc2cccnc2)[nH]c2ccc(OC(F)(F)F)cc12'
p2770
(dp2771
S'CCOC(=O)c1c(Br)[nH]c2ccc(OC(F)(F)F)cc12'
p2772
I-1
sg52
I1
sS'O=CCc1cccnc1'
p2773
I-1
ssS'CCOC(=O)CN.CN=C=O>>CCOC(=O)CNC(=O)NC'
p2774
(dp2775
S'CCOC(=O)CNC(=O)NC'
p2776
I1
sS'CCOC(=O)CN'
p2777
I-1
sS'CN=C=O'
p2778
I-1
ssS'CB(O)O.Cn1cc(CC(NC(=O)OC(C)(C)C)C(=O)O)c2ccccc21>>COC(=O)C(Cc1cn(C)c2ccccc12)NC(=O)OC(C)(C)C'
p2779
(dp2780
g95
I1
sS'Cn1cc(CC(NC(=O)OC(C)(C)C)C(=O)O)c2ccccc21'
p2781
I-1
sS'CB(O)O'
p2782
I-1
ssS'FC(F)(F)Oc1ccc2[nH]ccc2c1.O=C=O>>O=C(O)c1c[nH]c2ccc(OC(F)(F)F)cc12'
p2783
(dp2784
S'FC(F)(F)Oc1ccc2[nH]ccc2c1'
p2785
I-1
sg1129
I1
sS'O=C=O'
p2786
I-1
ssS'CCOC(=O)C(N)Cc1cc2ccccc2[nH]1>>NC(Cc1cc2ccccc2[nH]1)C(=O)O'
p2787
(dp2788
S'CCOC(=O)C(N)Cc1cc2ccccc2[nH]1'
p2789
I-1
sg61
I1
ssS'C=C(NC(C)=O)C(=O)OC.Cn1ccc2ccccc21>>COC(=O)C(Cc1cn(C)c2ccccc12)NC(C)=O'
p2790
(dp2791
S'C=C(NC(C)=O)C(=O)OC'
p2792
I-1
sS'Cn1ccc2ccccc21'
p2793
I-1
sg1542
I1
ssS'C#C[Na].O=C1c2ccccc2C(=O)N1CCBr>>C#CCCN1C(=O)c2ccccc2C1=O'
p2794
(dp2795
S'O=C1c2ccccc2C(=O)N1CCBr'
p2796
I-1
sg618
I1
sS'C#C[Na]'
p2797
I-1
ssS'Cn1cc(CC(N)C(=O)O)c2ccccc21.O=C(Cl)Cl>>Cn1cc(CC2NC(=O)OC2=O)c2ccccc21'
p2798
(dp2799
S'O=C(Cl)Cl'
p2800
I-1
sS'Cn1cc(CC(N)C(=O)O)c2ccccc21'
p2801
I-1
sS'Cn1cc(CC2NC(=O)OC2=O)c2ccccc21'
p2802
I1
ssS'C=CCOC(=O)Cl.Cn1cc(CC(N)C(=O)O)c2ccccc21>>C=CCOC(=O)NC(Cc1cn(C)c2ccccc12)C(=O)O'
p2803
(dp2804
g2082
I1
sS'Cn1cc(CC(N)C(=O)O)c2ccccc21'
p2805
I-1
sS'C=CCOC(=O)Cl'
p2806
I-1
ssS'BrCCCCCBr.O=C1NC(=O)c2ccccc21>>O=C1c2ccccc2C(=O)N1CCCCCBr'
p2807
(dp2808
S'BrCCCCCBr'
p2809
I-1
sS'O=C1NC(=O)c2ccccc21'
p2810
I-1
sg291
I1
ssS'Cc1ccc(S(=O)(=O)N2C(=O)NC(=O)C2Cc2c[nH]c3ccccc23)cc1.O=CO>>Cc1ccc(S(=O)(=O)N2C(=O)NC(=O)C2Cc2cn(C=O)c3ccccc23)cc1'
p2811
(dp2812
S'O=CO'
p2813
I-1
sS'Cc1ccc(S(=O)(=O)N2C(=O)NC(=O)C2Cc2cn(C=O)c3ccccc23)cc1'
p2814
I1
sS'Cc1ccc(S(=O)(=O)N2C(=O)NC(=O)C2Cc2c[nH]c3ccccc23)cc1'
p2815
I-1
ssS'CC(=O)N[C@@H](Cc1cc2ccccc2[nH]1)C(=O)OCc1ccccc1>>CC(=O)N[C@@H](Cc1cc2ccccc2[nH]1)C(=O)O'
p2816
(dp2817
S'CC(=O)N[C@@H](Cc1cc2ccccc2[nH]1)C(=O)OCc1ccccc1'
p2818
I-1
sg943
I1
ssS'C#CC[C@H](NC(=O)OCc1ccccc1)C(=O)OC.Nc1ccccc1I>>COC(=O)[C@H](CC#Cc1ccccc1N)NC(=O)OCc1ccccc1'
p2819
(dp2820
S'Nc1ccccc1I'
p2821
I-1
sS'C#CC[C@H](NC(=O)OCc1ccccc1)C(=O)OC'
p2822
I-1
sg1866
I1
ssS'COC(OC)C(=O)O>>COC(OC)C(=O)Cl'
p2823
(dp2824
g2474
I-1
sS'COC(OC)C(=O)Cl'
p2825
I1
ssS'CN1C(=O)N/C(=C\\c2c[nH]c3ccccc23)C1=O>>CN1C(=O)NC(Cc2c[nH]c3ccccc23)C1=O'
p2826
(dp2827
g625
I1
sg1275
I-1
ssS'Cn1cc(CC(N)C(=O)O)c2ccccc21>>COC(=O)C(N)Cc1cn(C)c2ccccc12'
p2828
(dp2829
g246
I1
sS'Cn1cc(CC(N)C(=O)O)c2ccccc21'
p2830
I-1
ssS'NC(Cc1cc2ccccc2[nH]1)C(=O)OCc1ccccc1.O=C(O)Cc1ccccc1>>O=C(Cc1ccccc1)NC(Cc1cc2ccccc2[nH]1)C(=O)OCc1ccccc1'
p2831
(dp2832
S'O=C(O)Cc1ccccc1'
p2833
I-1
sS'O=C(Cc1ccccc1)NC(Cc1cc2ccccc2[nH]1)C(=O)OCc1ccccc1'
p2834
I1
sS'NC(Cc1cc2ccccc2[nH]1)C(=O)OCc1ccccc1'
p2835
I-1
ssS'Cn1cc(CC(NC(=O)OC(C)(C)C)C(N)=O)c2ccccc21>>Cn1cc(CC(C#N)NC(=O)OC(C)(C)C)c2ccccc21'
p2836
(dp2837
g1976
I1
sS'Cn1cc(CC(NC(=O)OC(C)(C)C)C(N)=O)c2ccccc21'
p2838
I-1
ssS'OCC(O)Cc1cccnc1>>O=CCc1cccnc1'
p2839
(dp2840
g1786
I-1
sg19
I1
ssS'C=O.CNC.FC(F)(F)Oc1ccc2[nH]ccc2c1>>CN(C)Cc1c[nH]c2ccc(OC(F)(F)F)cc12'
p2841
(dp2842
S'C=O'
p2843
I-1
sS'FC(F)(F)Oc1ccc2[nH]ccc2c1'
p2844
I-1
sg1230
I1
sS'CNC'
p2845
I-1
ssS'COC(=O)N(C)C(=O)C(Cc1c[nH]c2ccccc12)NC(=O)C(F)(F)F>>COC(=O)N(C)C(=O)C(CC1C(=O)Nc2ccccc21)NC(=O)C(F)(F)F'
p2846
(dp2847
S'COC(=O)N(C)C(=O)C(Cc1c[nH]c2ccccc12)NC(=O)C(F)(F)F'
p2848
I-1
sS'COC(=O)N(C)C(=O)C(CC1C(=O)Nc2ccccc21)NC(=O)C(F)(F)F'
p2849
I1
ssS'CC(=O)O.NC(Cc1cc2ccccc2[nH]1)C(=O)O>>CC(=O)NC(Cc1cc2ccccc2[nH]1)C(=O)O'
p2850
(dp2851
g142
I1
sS'CC(=O)O'
p2852
I-1
sS'NC(Cc1cc2ccccc2[nH]1)C(=O)O'
p2853
I-1
ssS'Cc1ccc(S(=O)(=O)n2c(CCN3C(=O)c4ccccc4C3=O)cc3ccccc32)cc1>>O=C1c2ccccc2C(=O)N1CCc1cc2ccccc2[nH]1'
p2854
(dp2855
g502
I1
sg1579
I-1
ssS'COC(=O)c1cc2cc(OC(F)(F)F)ccc2[nH]1>>OCc1cc2cc(OC(F)(F)F)ccc2[nH]1'
p2856
(dp2857
g1156
I1
sg598
I-1
ssS'CC(=O)OC(C)=O.N[C@@H](Cc1cc2ccccc2[nH]1)C(=O)OCc1ccccc1>>CC(=O)N[C@@H](Cc1cc2ccccc2[nH]1)C(=O)OCc1ccccc1'
p2858
(dp2859
g2818
I1
sS'N[C@@H](Cc1cc2ccccc2[nH]1)C(=O)OCc1ccccc1'
p2860
I-1
sS'CC(=O)OC(C)=O'
p2861
I-1
ssS'O=C(N[C@@H](Cc1cc2ccccc2[nH]1)C(=O)O)OCc1ccccc1>>N[C@@H](Cc1cc2ccccc2[nH]1)C(=O)O'
p2862
(dp2863
g239
I1
sg1827
I-1
ssS'COC(=O)C(Cc1cn(C)c2ccccc12)NC(=O)OC(C)(C)C>>Cn1cc(CC(NC(=O)OC(C)(C)C)C(=O)O)c2ccccc21'
p2864
(dp2865
g490
I1
sS'COC(=O)C(Cc1cn(C)c2ccccc12)NC(=O)OC(C)(C)C'
p2866
I-1
ssS'CI.CN(C)C(=O)c1c[nH]c2ccccc12>>CN(C)C(=O)c1cn(C)c2ccccc12'
p2867
(dp2868
S'CI'
p2869
I-1
sS'CN(C)C(=O)c1cn(C)c2ccccc12'
p2870
I1
sS'CN(C)C(=O)c1c[nH]c2ccccc12'
p2871
I-1
ssS'COC(=O)NC(Cc1cc2ccccc2[nH]1)C(=O)OC>>COC(=O)NC(Cc1cc2ccccc2[nH]1)C(=O)O'
p2872
(dp2873
g1056
I-1
sg637
I1
ssS'COC(=O)[C@@H]1CCC(O)N1C(=O)OC.NNc1ccccc1>>COC(=O)NC(Cc1c[nH]c2ccccc12)C(=O)OC'
p2874
(dp2875
g1264
I1
sS'NNc1ccccc1'
p2876
I-1
sS'COC(=O)[C@@H]1CCC(O)N1C(=O)OC'
p2877
I-1
ssS'O=[N+]([O-])CCc1cc2ccccc2[nH]1>>NCCc1cc2ccccc2[nH]1'
p2878
(dp2879
g274
I-1
sg78
I1
ssS'CN1C(=O)NC(CC2C(=O)Nc3ccccc32)C1=O>>CN1C(=O)NC(CC2CNc3ccccc32)C1=O'
p2880
(dp2881
S'CN1C(=O)NC(CC2C(=O)Nc3ccccc32)C1=O'
p2882
I-1
sg1210
I1
ssS'CCOC(=O)C(NC=O)C(=O)OCC.CN(C)Cc1c[nH]c2cc(Br)ccc12>>CCOC(=O)C(Cc1c[nH]c2cc(Br)ccc12)(NC=O)C(=O)OCC'
p2883
(dp2884
g970
I1
sS'CN(C)Cc1c[nH]c2cc(Br)ccc12'
p2885
I-1
sS'CCOC(=O)C(NC=O)C(=O)OCC'
p2886
I-1
ssS'O=C(NCCCCCNc1nc2ccccc2[n+]([O-])n1)OCc1ccccc1>>NCCCCCNc1nc2ccccc2[n+]([O-])n1'
p2887
(dp2888
S'O=C(NCCCCCNc1nc2ccccc2[n+]([O-])n1)OCc1ccccc1'
p2889
I-1
sg450
I1
ssS'CN.O=C(OC(Cl)(Cl)Cl)OC(Cl)(Cl)Cl>>CN=C=O'
p2890
(dp2891
S'O=C(OC(Cl)(Cl)Cl)OC(Cl)(Cl)Cl'
p2892
I-1
sS'CN'
p2893
I-1
sg44
I1
ssS'NCCCCCNC(=O)OCc1ccccc1.[O-][n+]1nc(Cl)nc2ccccc21>>O=C(NCCCCCNc1nc2ccccc2[n+]([O-])n1)OCc1ccccc1'
p2894
(dp2895
g2889
I1
sS'NCCCCCNC(=O)OCc1ccccc1'
p2896
I-1
sS'[O-][n+]1nc(Cl)nc2ccccc21'
p2897
I-1
ssS'COC(=O)N(C)C(=O)C(Cc1c[nH]c2ccccc12)NC(=O)OCc1ccccc1>>COC(=O)N(C)C(=O)C(CC1C(=O)Nc2ccccc21)NC(=O)OCc1ccccc1'
p2898
(dp2899
g898
I1
sg1487
I-1
ssS'COC(=O)C(Cc1c[nH]c2ccccc12)NC(=O)C(F)(F)F>>O=C(O)C(Cc1c[nH]c2ccccc12)NC(=O)C(F)(F)F'
p2900
(dp2901
S'COC(=O)C(Cc1c[nH]c2ccccc12)NC(=O)C(F)(F)F'
p2902
I-1
sg1927
I1
ssS'CN(C)C=O.O=[N+]([O-])c1ccc(OC(F)(F)F)cc1Br>>O=Cc1cc(OC(F)(F)F)ccc1[N+](=O)[O-]'
p2903
(dp2904
S'O=[N+]([O-])c1ccc(OC(F)(F)F)cc1Br'
p2905
I-1
sg204
I1
sS'CN(C)C=O'
p2906
I-1
ssS'CC(=O)CC(C)(C)O.O=[N+]([O-])c1ccccc1Br>>CC(=O)Cc1ccccc1[N+](=O)[O-]'
p2907
(dp2908
g876
I1
sS'O=[N+]([O-])c1ccccc1Br'
p2909
I-1
sS'CC(=O)CC(C)(C)O'
p2910
I-1
ssS'Brc1cccnc1.C=CCB1OC(C)(C)C(C)(C)O1>>C=CCc1cccnc1'
p2911
(dp2912
g1785
I1
sS'C=CCB1OC(C)(C)C(C)(C)O1'
p2913
I-1
sS'Brc1cccnc1'
p2914
I-1
ssS'N#CC(N)Cc1c[nH]c2ccccc12>>CCOC(=O)C(N)Cc1c[nH]c2ccccc12'
p2915
(dp2916
S'N#CC(N)Cc1c[nH]c2ccccc12'
p2917
I-1
sg391
I1
ssS'C#CC(O)Cc1cccnc1.CC(C)(C)[Si](C)(C)Cl>>C#CC(Cc1cccnc1)O[Si](C)(C)C(C)(C)C'
p2918
(dp2919
S'C#CC(O)Cc1cccnc1'
p2920
I-1
sS'C#CC(Cc1cccnc1)O[Si](C)(C)C(C)(C)C'
p2921
I1
sS'CC(C)(C)[Si](C)(C)Cl'
p2922
I-1
ssS'CC(=O)NC(Cc1cn(C)c2ccccc12)C(=O)O.CO>>COC(=O)C(Cc1cn(C)c2ccccc12)NC(C)=O'
p2923
(dp2924
S'CO'
p2925
I-1
sg1542
I1
sS'CC(=O)NC(Cc1cn(C)c2ccccc12)C(=O)O'
p2926
I-1
ssS'O=C1c2ccccc2C(=O)N1CCc1cc2ccccc2[nH]1>>NCCc1cc2ccccc2[nH]1'
p2927
(dp2928
g502
I-1
sg78
I1
ssS'COCn1ccc2ccccc21>>COCn1cc(Br)c2ccccc21'
p2929
(dp2930
S'COCn1ccc2ccccc21'
p2931
I-1
sg172
I1
ssS'O=C(CN1C(=O)c2ccccc2C1=O)c1cc2ccccc2[nH]1>>O=C1c2ccccc2C(=O)N1CCc1cc2ccccc2[nH]1'
p2932
(dp2933
g502
I1
sg1753
I-1
ssS'c1ccc(Cc2ccccc2)cc1>>O=C(c1ccccc1)c1ccccc1'
p2934
(dp2935
g622
I-1
sg1078
I1
ssS'CC(=O)Nc1ccccc1C#CCC#N>>CC(=O)n1c(CC#N)cc2ccccc21'
p2936
(dp2937
g1642
I1
sS'CC(=O)Nc1ccccc1C#CCC#N'
p2938
I-1
ssS'CC(C)(C)OC(=O)OC(=O)OC(C)(C)C.COC(=O)C(N)Cc1c[nH]c2ccccc12>>COC(=O)C(Cc1c[nH]c2ccccc12)NC(=O)OC(C)(C)C'
p2939
(dp2940
g933
I1
sS'COC(=O)C(N)Cc1c[nH]c2ccccc12'
p2941
I-1
sS'CC(C)(C)OC(=O)OC(=O)OC(C)(C)C'
p2942
I-1
ssS'O=C(O)C(=O)Cc1c[nH]c2ccccc12>>NC(Cc1c[nH]c2ccccc12)C(=O)O'
p2943
(dp2944
g804
I-1
sg499
I1
ssS'Cn1cc(CC(NC(=O)c2ccccc2)C(=O)OCc2ccccc2)c2ccccc21>>Cn1cc(CC(NC(=O)c2ccccc2)C(=O)O)c2ccccc21'
p2945
(dp2946
S'Cn1cc(CC(NC(=O)c2ccccc2)C(=O)OCc2ccccc2)c2ccccc21'
p2947
I-1
sS'Cn1cc(CC(NC(=O)c2ccccc2)C(=O)O)c2ccccc21'
p2948
I1
ssS'O=C(O)CCN1C(=O)c2ccccc2C1=O>>O=C(Cl)CCN1C(=O)c2ccccc2C1=O'
p2949
(dp2950
S'O=C(Cl)CCN1C(=O)c2ccccc2C1=O'
p2951
I1
sg2443
I-1
ssS'CCOC(=O)C(N)Cc1c[nH]c2ccccc12.O=C(Cl)Cl>>CCOC(=O)C(Cc1c[nH]c2ccccc12)N=C=O'
p2952
(dp2953
S'O=C(Cl)Cl'
p2954
I-1
sg836
I1
sS'CCOC(=O)C(N)Cc1c[nH]c2ccccc12'
p2955
I-1
ssS'CCOC(=O)C(Cc1c[nH]c2ccccc12)(NC(C)=O)C(=O)OCC>>NC(Cc1c[nH]c2ccccc12)C(=O)O'
p2956
(dp2957
g499
I1
sS'CCOC(=O)C(Cc1c[nH]c2ccccc12)(NC(C)=O)C(=O)OCC'
p2958
I-1
ssS'C#Cc1cc(OC(F)(F)F)ccc1N>>FC(F)(F)Oc1ccc2[nH]ccc2c1'
p2959
(dp2960
g2491
I-1
sg1197
I1
ssS'C=C[Mg]Br.O=Cc1cc2cc(OC(F)(F)F)ccc2[nH]1>>C=CC(O)c1cc2cc(OC(F)(F)F)ccc2[nH]1'
p2961
(dp2962
S'C=C[Mg]Br'
p2963
I-1
sS'C=CC(O)c1cc2cc(OC(F)(F)F)ccc2[nH]1'
p2964
I1
sS'O=Cc1cc2cc(OC(F)(F)F)ccc2[nH]1'
p2965
I-1
ssS'CCOC(=O)Cc1cc2ccccc2[nH]1>>NC(=O)Cc1cc2ccccc2[nH]1'
p2966
(dp2967
g48
I1
sg813
I-1
ssS'CCOC(=O)C(N)Cc1c[nH]c2ccccc12.S=C(Cl)Cl>>CCOC(=O)C(Cc1c[nH]c2ccccc12)N=C=S'
p2968
(dp2969
g1259
I1
sS'S=C(Cl)Cl'
p2970
I-1
sS'CCOC(=O)C(N)Cc1c[nH]c2ccccc12'
p2971
I-1
ssS'N.O=C(O)Cc1cc2ccccc2[nH]1>>NC(=O)Cc1cc2ccccc2[nH]1'
p2972
(dp2973
S'O=C(O)Cc1cc2ccccc2[nH]1'
p2974
I-1
sg48
I1
sg99
I-1
ssS'CC(C)(C)OC(=O)NCCCCCNc1nc2ccccc2[n+]([O-])n1>>NCCCCCNc1nc2ccccc2[n+]([O-])n1'
p2975
(dp2976
g450
I1
sS'CC(C)(C)OC(=O)NCCCCCNc1nc2ccccc2[n+]([O-])n1'
p2977
I-1
ssS'Cc1ccc(S(=O)(=O)n2c(CCCl)cc3ccccc32)cc1>>ClCCc1cc2ccccc2[nH]1'
p2978
(dp2979
g2381
I1
sg2106
I-1
ssS'CNC(=O)OC.O=C(O)C(Cc1c[nH]c2ccccc12)NC(=O)C(F)(F)F>>COC(=O)N(C)C(=O)C(Cc1c[nH]c2ccccc12)NC(=O)C(F)(F)F'
p2980
(dp2981
S'CNC(=O)OC'
p2982
I-1
sS'O=C(O)C(Cc1c[nH]c2ccccc12)NC(=O)C(F)(F)F'
p2983
I-1
sg2848
I1
ssS'Cn1cc(C(=O)O)c2ccccc21>>Cn1cc(C(=O)Cl)c2ccccc21'
p2984
(dp2985
g726
I1
sS'Cn1cc(C(=O)O)c2ccccc21'
p2986
I-1
ssS'CS(=O)(=O)Cl.Nc1ccc(OC(F)(F)F)cc1I>>CS(=O)(=O)Nc1ccc(OC(F)(F)F)cc1I'
p2987
(dp2988
S'Nc1ccc(OC(F)(F)F)cc1I'
p2989
I-1
sg633
I1
sS'CS(=O)(=O)Cl'
p2990
I-1
ssS'CS(=O)(=O)Cl.Nc1ccc(OC(F)(F)F)cc1C=C(Br)Br>>CS(=O)(=O)Nc1ccc(OC(F)(F)F)cc1C=C(Br)Br'
p2991
(dp2992
g372
I1
sS'Nc1ccc(OC(F)(F)F)cc1C=C(Br)Br'
p2993
I-1
sS'CS(=O)(=O)Cl'
p2994
I-1
ssS'C[Si](C)(C)C#Cc1cc(OC(F)(F)F)ccc1[N+](=O)[O-]>>C#Cc1cc(OC(F)(F)F)ccc1[N+](=O)[O-]'
p2995
(dp2996
S'C#Cc1cc(OC(F)(F)F)ccc1[N+](=O)[O-]'
p2997
I1
sS'C[Si](C)(C)C#Cc1cc(OC(F)(F)F)ccc1[N+](=O)[O-]'
p2998
I-1
ssS'BrCc1c[nH]c2ccccc12.CC(C)(C)OC(=O)CN=C(c1ccccc1)c1ccccc1>>CC(C)(C)OC(=O)C(Cc1c[nH]c2ccccc12)N=C(c1ccccc1)c1ccccc1'
p2999
(dp3000
g1830
I1
sS'CC(C)(C)OC(=O)CN=C(c1ccccc1)c1ccccc1'
p3001
I-1
sS'BrCc1c[nH]c2ccccc12'
p3002
I-1
ssS'O=C(CN1C(=O)CCC1=O)c1cc2ccccc2[nH]1>>O=C1CCC(=O)N1CCc1cc2ccccc2[nH]1'
p3003
(dp3004
g77
I1
sg590
I-1
ssS'FC(F)(F)Oc1ccc2[nH]c(Br)cc2c1.O=CCc1cccnc1>>OC(Cc1cccnc1)c1cc2cc(OC(F)(F)F)ccc2[nH]1'
p3005
(dp3006
S'FC(F)(F)Oc1ccc2[nH]c(Br)cc2c1'
p3007
I-1
sg658
I1
sS'O=CCc1cccnc1'
p3008
I-1
ssS'CN=C=O.NC(Cc1c[nH]c2ccccc12)C(=O)O>>CNC(=O)NC(Cc1c[nH]c2ccccc12)C(=O)O'
p3009
(dp3010
g2158
I1
sS'CN=C=O'
p3011
I-1
sS'NC(Cc1c[nH]c2ccccc12)C(=O)O'
p3012
I-1
ssS'CI.COC(=O)C(Cc1c[nH]c2ccccc12)NC(=O)OC(C)(C)C>>COC(=O)C(Cc1cn(C)c2ccccc12)NC(=O)OC(C)(C)C'
p3013
(dp3014
g95
I1
sS'CI'
p3015
I-1
sS'COC(=O)C(Cc1c[nH]c2ccccc12)NC(=O)OC(C)(C)C'
p3016
I-1
ssS'CCOC(=O)CN=C=O.CN>>CCOC(=O)CNC(=O)NC'
p3017
(dp3018
g2776
I1
sS'CCOC(=O)CN=C=O'
p3019
I-1
sS'CN'
p3020
I-1
ssS'Brc1cccnc1.CON(C)C(=O)C(O[Si](C)(C)C(C)(C)C)c1cc2cc(OC(F)(F)F)ccc2[nH]1>>CC(C)(C)[Si](C)(C)OC(C(=O)c1cccnc1)c1cc2cc(OC(F)(F)F)ccc2[nH]1'
p3021
(dp3022
S'CON(C)C(=O)C(O[Si](C)(C)C(C)(C)C)c1cc2cc(OC(F)(F)F)ccc2[nH]1'
p3023
I-1
sg453
I1
sS'Brc1cccnc1'
p3024
I-1
ssS'C=CCOC(=O)C(Cc1cn(C)c2ccccc12)/N=C/c1ccccc1>>C=CCOC(=O)C(N)Cc1cn(C)c2ccccc12'
p3025
(dp3026
g64
I1
sS'C=CCOC(=O)C(Cc1cn(C)c2ccccc12)/N=C/c1ccccc1'
p3027
I-1
ssS'CI.S=C(S)NCc1c[nH]c2ccccc12>>CSC(=S)NCc1c[nH]c2ccccc12'
p3028
(dp3029
S'S=C(S)NCc1c[nH]c2ccccc12'
p3030
I-1
sg2707
I1
sS'CI'
p3031
I-1
ssS'CC(C)(C)[Si](C)(C)Cl.NC(CO)c1ccccc1>>CC(C)(C)[Si](C)(C)OCC(N)c1ccccc1'
p3032
(dp3033
S'NC(CO)c1ccccc1'
p3034
I-1
sS'CC(C)(C)[Si](C)(C)OCC(N)c1ccccc1'
p3035
I1
sS'CC(C)(C)[Si](C)(C)Cl'
p3036
I-1
ssS'C#CC[C@H](NC(C)=O)C(=O)OC.O=[N+]([O-])c1ccccc1Br>>COC(=O)[C@H](CC#Cc1ccccc1[N+](=O)[O-])NC(C)=O'
p3037
(dp3038
S'O=[N+]([O-])c1ccccc1Br'
p3039
I-1
sg1491
I1
sS'C#CC[C@H](NC(C)=O)C(=O)OC'
p3040
I-1
ssS'C#CC[C@H](NC(=O)OC)C(=O)OC(C)(C)C.Nc1ccccc1I>>COC(=O)N[C@@H](CC#Cc1ccccc1N)C(=O)OC(C)(C)C'
p3041
(dp3042
S'C#CC[C@H](NC(=O)OC)C(=O)OC(C)(C)C'
p3043
I-1
sg265
I1
sS'Nc1ccccc1I'
p3044
I-1
ssS'CN(C)Cc1c[nH]c2ccccc12.COC(=O)C[N+](=O)[O-]>>COC(=O)C(Cc1c[nH]c2ccccc12)[N+](=O)[O-]'
p3045
(dp3046
g1994
I1
sS'CN(C)Cc1c[nH]c2ccccc12'
p3047
I-1
sS'COC(=O)C[N+](=O)[O-]'
p3048
I-1
ssS'C#CCCN1C(=O)c2ccccc2C1=O.O=S(=O)(Nc1ccccc1Cl)c1ccccc1>>O=C1c2ccccc2C(=O)N1CCC#Cc1ccccc1NS(=O)(=O)c1ccccc1'
p3049
(dp3050
S'O=S(=O)(Nc1ccccc1Cl)c1ccccc1'
p3051
I-1
sg1222
I1
sS'C#CCCN1C(=O)c2ccccc2C1=O'
p3052
I-1
ssS'FC(F)(F)Oc1ccc2[nH]cc(Br)c2c1.O=CCc1cccnc1>>OC(Cc1cccnc1)c1[nH]c2ccc(OC(F)(F)F)cc2c1Br'
p3053
(dp3054
S'FC(F)(F)Oc1ccc2[nH]cc(Br)c2c1'
p3055
I-1
sS'OC(Cc1cccnc1)c1[nH]c2ccc(OC(F)(F)F)cc2c1Br'
p3056
I1
sS'O=CCc1cccnc1'
p3057
I-1
ssS'CO.COC(=O)Cl.O=C(O)[C@@H]1CCCN1>>COC(=O)[C@@H]1CCCN1C(=O)OC'
p3058
(dp3059
S'COC(=O)Cl'
p3060
I-1
sg1947
I1
sS'CO'
p3061
I-1
sS'O=C(O)[C@@H]1CCCN1'
p3062
I-1
ssS'CI.Cc1ccc(S(=O)(=O)N2C(=O)NC(=O)C2Cc2cn(C(=O)OC(C)(C)C)c3ccccc23)cc1>>Cc1ccc(S(=O)(=O)N2C(=O)N(C)C(=O)C2Cc2cn(C(=O)OC(C)(C)C)c3ccccc23)cc1'
p3063
(dp3064
S'Cc1ccc(S(=O)(=O)N2C(=O)NC(=O)C2Cc2cn(C(=O)OC(C)(C)C)c3ccccc23)cc1'
p3065
I-1
sS'CI'
p3066
I-1
sg2701
I1
ssS'COC(=O)C(Cc1c[nH]c2ccccc12)NC(=O)OCc1ccccc1>>O=C(NC(Cc1c[nH]c2ccccc12)C(=O)O)OCc1ccccc1'
p3067
(dp3068
g2761
I-1
sg396
I1
ssS'CCOC(=O)CCC1Cc2ccccc2N1C(=O)OCc1ccccc1>>CCOC(=O)CCC1Cc2ccccc2N1'
p3069
(dp3070
g194
I-1
sg410
I1
ssS'CCOC(=O)C(Cc1cn(C)c2ccccc12)(NC(C)=O)C(=O)OCC>>Cn1cc(CC(N)C(=O)O)c2ccccc21'
p3071
(dp3072
S'CCOC(=O)C(Cc1cn(C)c2ccccc12)(NC(C)=O)C(=O)OCC'
p3073
I-1
sg431
I1
ssS'CI.Cn1cc(CC(NC(=O)OC(C)(C)C)C(=O)O)c2ccccc21>>COC(=O)C(Cc1cn(C)c2ccccc12)NC(=O)OC(C)(C)C'
p3074
(dp3075
g95
I1
sS'CI'
p3076
I-1
sS'Cn1cc(CC(NC(=O)OC(C)(C)C)C(=O)O)c2ccccc21'
p3077
I-1
ssS'CC(C)(C)O.CC(C)(C)OC(=O)NC(Cc1c[nH]c2ccccc12)C(=O)O>>CC(C)(C)OC(=O)NC(Cc1c[nH]c2ccccc12)C(=O)OC(C)(C)C'
p3078
(dp3079
S'CC(C)(C)O'
p3080
I-1
sS'CC(C)(C)OC(=O)NC(Cc1c[nH]c2ccccc12)C(=O)O'
p3081
I-1
sg2427
I1
ssS'CCOC(=O)CCc1cc2ccccc2[nH]1>>CCOC(=O)C(Cc1cc2ccccc2[nH]1)=NO'
p3082
(dp3083
g411
I-1
sg2070
I1
ssS'Cn1cc(CC(NC=O)C(=O)O)c2ccccc21>>Cn1cc(CC(N)C(=O)O)c2ccccc21'
p3084
(dp3085
g431
I1
sg1797
I-1
ssS'CC#N.COC(=O)Cc1ccccc1[N+](=O)[O-]>>N#CCC(=O)Cc1ccccc1[N+](=O)[O-]'
p3086
(dp3087
S'COC(=O)Cc1ccccc1[N+](=O)[O-]'
p3088
I-1
sS'N#CCC(=O)Cc1ccccc1[N+](=O)[O-]'
p3089
I1
sS'CC#N'
p3090
I-1
ssS'Cn1cc(CBr)c2ccccc21.N#CCN=C(c1ccccc1)c1ccccc1>>Cn1cc(CC(C#N)N=C(c2ccccc2)c2ccccc2)c2ccccc21'
p3091
(dp3092
S'Cn1cc(CBr)c2ccccc21'
p3093
I-1
sS'N#CCN=C(c1ccccc1)c1ccccc1'
p3094
I-1
sg2360
I1
ssS'C#CCC(=O)OCC.Nc1ccccc1I>>CCOC(=O)CC#Cc1ccccc1N'
p3095
(dp3096
g812
I1
sS'Nc1ccccc1I'
p3097
I-1
sS'C#CCC(=O)OCC'
p3098
I-1
ssS'ClCCCCCI.O=C1[N-]C(=O)c2ccccc21>>O=C1c2ccccc2C(=O)N1CCCCCCl'
p3099
(dp3100
S'O=C1[N-]C(=O)c2ccccc21'
p3101
I-1
sS'ClCCCCCI'
p3102
I-1
sg1712
I1
ssS'CC(=O)Cl.N#CCC#Cc1ccccc1N>>CC(=O)Nc1ccccc1C#CCC#N'
p3103
(dp3104
S'N#CCC#Cc1ccccc1N'
p3105
I-1
sS'CC(=O)Cl'
p3106
I-1
sg2938
I1
ssS'O=C(O)C1Cc2ccccc2N1C(=O)OCc1ccccc1>>O=C(OCc1ccccc1)N1c2ccccc2CC1CO'
p3107
(dp3108
S'O=C(OCc1ccccc1)N1c2ccccc2CC1CO'
p3109
I1
sg2736
I-1
ssS'COC(OC)C(=O)Cl.C[Sn](C)(C)c1cccnc1>>COC(OC)C(=O)c1cccnc1'
p3110
(dp3111
g81
I1
sS'C[Sn](C)(C)c1cccnc1'
p3112
I-1
sS'COC(OC)C(=O)Cl'
p3113
I-1
ssS'N#CCCCCCl>>NCCCCCCl'
p3114
(dp3115
S'N#CCCCCCl'
p3116
I-1
sS'NCCCCCCl'
p3117
I1
ssS'CC(C)(C)OC(=O)C(N)Cc1c[nH]c2ccccc12.S=C=S>>CC(C)(C)OC(=O)C(Cc1c[nH]c2ccccc12)N=C=S'
p3118
(dp3119
S'CC(C)(C)OC(=O)C(N)Cc1c[nH]c2ccccc12'
p3120
I-1
sS'S=C=S'
p3121
I-1
sg1723
I1
ssS'CCOC(=O)C(NC(C)=O)C(=O)OCC.CN(C)Cc1cn(C)c2ccccc12>>CCOC(=O)C(Cc1cn(C)c2ccccc12)(NC(C)=O)C(=O)OCC'
p3122
(dp3123
S'CCOC(=O)C(NC(C)=O)C(=O)OCC'
p3124
I-1
sS'CN(C)Cc1cn(C)c2ccccc12'
p3125
I-1
sg2004
I1
ssS'CI.NC(Cc1c[nH]c2ccccc12)C(=O)O>>Cn1cc(CC(N)C(=O)O)c2ccccc21'
p3126
(dp3127
S'CI'
p3128
I-1
sg108
I1
sS'NC(Cc1c[nH]c2ccccc12)C(=O)O'
p3129
I-1
ssS'CC(C)(C)OC(=O)NC(=S)NC(=O)OC(C)(C)C.Nc1ccccc1[N+](=O)[O-]>>CC(C)(C)OC(=O)N=C(NC(=O)OC(C)(C)C)Nc1ccccc1[N+](=O)[O-]'
p3130
(dp3131
g2098
I1
sS'Nc1ccccc1[N+](=O)[O-]'
p3132
I-1
sS'CC(C)(C)OC(=O)NC(=S)NC(=O)OC(C)(C)C'
p3133
I-1
ssS'O=C(O)c1c[nH]c2ccc(OC(F)(F)F)cc12>>FC(F)(F)Oc1ccc2[nH]ccc2c1'
p3134
(dp3135
g1197
I1
sg1129
I-1
ssS'CC(C)(C)OC(=O)NCCC#Cc1ccccc1N>>CC(C)(C)OC(=O)NCCc1cc2ccccc2[nH]1'
p3136
(dp3137
g884
I1
sg2316
I-1
ssS'N[C@@H](Cc1c[nH]c2ccccc12)C(=O)O>>O=C(O)C(=O)Cc1c[nH]c2ccccc12'
p3138
(dp3139
g804
I1
sg964
I-1
ssS'COC(=O)N[C@@H](CC#Cc1ccccc1N)C(=O)OC>>COC(=O)N[C@@H](Cc1cc2ccccc2[nH]1)C(=O)OC'
p3140
(dp3141
g1168
I-1
sg330
I1
ssS'C#CC[C@H](NC(=O)OC(C)(C)C)C(=O)OC.O=[N+]([O-])c1ccccc1I>>COC(=O)[C@H](CC#Cc1ccccc1[N+](=O)[O-])NC(=O)OC(C)(C)C'
p3142
(dp3143
S'C#CC[C@H](NC(=O)OC(C)(C)C)C(=O)OC'
p3144
I-1
sg1782
I1
sS'O=[N+]([O-])c1ccccc1I'
p3145
I-1
ssS'C[Si](C)(C)C#Cc1cc(OC(F)(F)F)ccc1[N+](=O)[O-]>>C[Si](C)(C)C#Cc1cc(OC(F)(F)F)ccc1N'
p3146
(dp3147
g1837
I-1
sg1817
I1
ssS'Cc1ccc(S(=O)(=O)OCCCCCNC(=O)OC(C)(C)C)cc1.O=C1[N-]C(=O)c2ccccc21>>CC(C)(C)OC(=O)NCCCCCN1C(=O)c2ccccc2C1=O'
p3148
(dp3149
S'O=C1[N-]C(=O)c2ccccc21'
p3150
I-1
sS'Cc1ccc(S(=O)(=O)OCCCCCNC(=O)OC(C)(C)C)cc1'
p3151
I-1
sg217
I1
ssS'COC(=O)Cc1cc2ccccc2[nH]1>>O=C(O)Cc1cc2ccccc2[nH]1'
p3152
(dp3153
S'COC(=O)Cc1cc2ccccc2[nH]1'
p3154
I-1
sg879
I1
ssS'COC(=O)[C@H](Cc1cc2ccccc2[nH]1)NC(=O)OC(C)(C)C>>CC(C)(C)OC(=O)N[C@@H](Cc1cc2ccccc2[nH]1)C(=O)O'
p3155
(dp3156
S'COC(=O)[C@H](Cc1cc2ccccc2[nH]1)NC(=O)OC(C)(C)C'
p3157
I-1
sg112
I1
ssS'c1cncc(CC2SCCCS2)c1>>O=CCc1cccnc1'
p3158
(dp3159
S'c1cncc(CC2SCCCS2)c1'
p3160
I-1
sg19
I1
ssS'N#CCc1cc2ccccc2[nH]1>>NCCc1cc2ccccc2[nH]1'
p3161
(dp3162
g535
I-1
sg78
I1
ssS'CCOC(=O)C(Cc1c[nH]c2ccccc12)NC(=S)NC>>CNC(=S)NC(Cc1c[nH]c2ccccc12)C(=O)O'
p3163
(dp3164
g1138
I-1
sg629
I1
ssS'Cn1cc(CBr)c2ccccc21.O=C(CN=C(c1ccccc1)c1ccccc1)OCc1ccccc1>>Cn1cc(CC(N=C(c2ccccc2)c2ccccc2)C(=O)OCc2ccccc2)c2ccccc21'
p3165
(dp3166
S'Cn1cc(CBr)c2ccccc21'
p3167
I-1
sS'O=C(CN=C(c1ccccc1)c1ccccc1)OCc1ccccc1'
p3168
I-1
sg766
I1
ssS'FC(F)(F)Oc1ccc2[nH]ccc2c1.O=CCc1cccnc1>>OC(Cc1cccnc1)c1cc2cc(OC(F)(F)F)ccc2[nH]1'
p3169
(dp3170
S'FC(F)(F)Oc1ccc2[nH]ccc2c1'
p3171
I-1
sg658
I1
sS'O=CCc1cccnc1'
p3172
I-1
ssS'COC(=O)C(Cc1cc2ccccc2[nH]1)NC(=O)OC(C)(C)C>>CC(C)(C)OC(=O)NC(Cc1cc2ccccc2[nH]1)C(=O)O'
p3173
(dp3174
g723
I1
sg1944
I-1
ssS'CC(C)(C)OC(=O)NC(Cc1c[nH]c2ccccc12)C(=O)OC(C)(C)C>>Cn1cc(CC(NC(=O)OC(C)(C)C)C(=O)OC(C)(C)C)c2ccccc21'
p3175
(dp3176
g2427
I-1
sg2079
I1
ssS'NC(=O)C(Cc1cc2ccccc2[nH]1)NC(=O)OCc1ccccc1>>NC(=O)C(N)Cc1cc2ccccc2[nH]1'
p3177
(dp3178
g601
I1
sg1160
I-1
ssS'CCOC(=O)C(Cc1c[nH]c2ccccc12)NC(=O)OC>>COC(=O)NC(Cc1c[nH]c2ccccc12)C(=O)O'
p3179
(dp3180
g780
I-1
sg1304
I1
ssS'CC(C)[Si](C(C)C)(C(C)C)n1ccc2ccccc21>>CC(C)[Si](C(C)C)(C(C)C)n1cc(I)c2ccccc21'
p3181
(dp3182
g2239
I1
sS'CC(C)[Si](C(C)C)(C(C)C)n1ccc2ccccc21'
p3183
I-1
ssS'Cc1ccc(S(=O)(=O)Cl)cc1.N#CCC#Cc1ccccc1N>>Cc1ccc(S(=O)(=O)Nc2ccccc2C#CCC#N)cc1'
p3184
(dp3185
g2560
I1
sS'Cc1ccc(S(=O)(=O)Cl)cc1'
p3186
I-1
sS'N#CCC#Cc1ccccc1N'
p3187
I-1
ssS'Cn1cc(CO)c2ccccc21>>Cn1cc(CBr)c2ccccc21'
p3188
(dp3189
S'Cn1cc(CO)c2ccccc21'
p3190
I-1
sS'Cn1cc(CBr)c2ccccc21'
p3191
I1
ssS'NC(=O)Cc1cc2ccccc2[nH]1>>NCCc1cc2ccccc2[nH]1'
p3192
(dp3193
g78
I1
sg48
I-1
ssS'O=C1c2ccccc2C(=O)N1CCBr.[Li]C#C>>C#CCCN1C(=O)c2ccccc2C1=O'
p3194
(dp3195
S'O=C1c2ccccc2C(=O)N1CCBr'
p3196
I-1
sg618
I1
sS'[Li]C#C'
p3197
I-1
ssS'O=Cc1cc2cc(OC(F)(F)F)ccc2[nH]1>>FC(F)(F)Oc1ccc2[nH]ccc2c1'
p3198
(dp3199
g1197
I1
sS'O=Cc1cc2cc(OC(F)(F)F)ccc2[nH]1'
p3200
I-1
ssS'CNOC.N#CCC(=O)O>>CON(C)C(=O)CC#N'
p3201
(dp3202
S'N#CCC(=O)O'
p3203
I-1
sS'CNOC'
p3204
I-1
sS'CON(C)C(=O)CC#N'
p3205
I1
ssS'C=CCOC(=O)NC(Cc1cn(C)c2ccccc12)C(=O)O.CO>>C=CCOC(=O)NC(Cc1cn(C)c2ccccc12)C(=O)OC'
p3206
(dp3207
S'CO'
p3208
I-1
sS'C=CCOC(=O)NC(Cc1cn(C)c2ccccc12)C(=O)O'
p3209
I-1
sg2083
I1
ssS'BrC(Br)(Br)Br.O=Cc1cc(OC(F)(F)F)ccc1[N+](=O)[O-]>>O=[N+]([O-])c1ccc(OC(F)(F)F)cc1C=C(Br)Br'
p3210
(dp3211
S'O=Cc1cc(OC(F)(F)F)ccc1[N+](=O)[O-]'
p3212
I-1
sg2518
I1
sS'BrC(Br)(Br)Br'
p3213
I-1
ssS'O=C1Cc2cc(OC(F)(F)F)ccc2N1>>FC(F)(F)Oc1ccc2c(c1)CCN2'
p3214
(dp3215
S'O=C1Cc2cc(OC(F)(F)F)ccc2N1'
p3216
I-1
sg1287
I1
ssS'CC(=O)Cl.ClCCc1cc2ccccc2[nH]1>>CC(=O)n1c(CCCl)cc2ccccc21'
p3217
(dp3218
S'ClCCc1cc2ccccc2[nH]1'
p3219
I-1
sS'CC(=O)n1c(CCCl)cc2ccccc21'
p3220
I1
sS'CC(=O)Cl'
p3221
I-1
ssS'CCOC(=O)C(Cc1cn(C)c2ccccc12)(NC(C)=O)C(=O)O>>CC(=O)NC(Cc1cn(C)c2ccccc12)(C(=O)O)C(=O)O'
p3222
(dp3223
g2005
I1
sg2243
I-1
ssS'COS(=O)(=O)OC.Cc1ccc(S(=O)(=O)N2C(=O)NC(=O)C2Cc2c[nH]c3ccccc23)cc1>>Cc1ccc(S(=O)(=O)N2C(=O)N(C)C(=O)C2Cc2c[nH]c3ccccc23)cc1'
p3224
(dp3225
S'COS(=O)(=O)OC'
p3226
I-1
sg314
I1
sS'Cc1ccc(S(=O)(=O)N2C(=O)NC(=O)C2Cc2c[nH]c3ccccc23)cc1'
p3227
I-1
ssS'C#CCC#N.Nc1ccccc1Br>>N#CCC#Cc1ccccc1N'
p3228
(dp3229
S'C#CCC#N'
p3230
I-1
sS'Nc1ccccc1Br'
p3231
I-1
sg998
I1
ssS'CI.NCc1c[nH]c2ccccc12.S=C=S>>CSC(=S)NCc1c[nH]c2ccccc12'
p3232
(dp3233
g2707
I1
sS'CI'
p3234
I-1
sS'NCc1c[nH]c2ccccc12'
p3235
I-1
sS'S=C=S'
p3236
I-1
ssS'OCc1c[nH]c2ccccc12>>BrCc1c[nH]c2ccccc12'
p3237
(dp3238
g2590
I1
sS'OCc1c[nH]c2ccccc12'
p3239
I-1
ssS'Cn1cc(CC(N=C(c2ccccc2)c2ccccc2)C(=O)OC(C)(C)C)c2ccccc21>>Cn1cc(CC(N)C(=O)OC(C)(C)C)c2ccccc21'
p3240
(dp3241
S'Cn1cc(CC(N=C(c2ccccc2)c2ccccc2)C(=O)OC(C)(C)C)c2ccccc21'
p3242
I-1
sS'Cn1cc(CC(N)C(=O)OC(C)(C)C)c2ccccc21'
p3243
I1
ssS'CC(=O)OC(C)(C)CO[Si](C)(C)C(C)(C)C>>CC(C)(O)CO[Si](C)(C)C(C)(C)C'
p3244
(dp3245
g2739
I-1
sg2544
I1
ssS'C#CC[C@H](N)C(=O)OC(C)(C)C.COC(=O)Cl>>C#CC[C@H](NC(=O)OC)C(=O)OC(C)(C)C'
p3246
(dp3247
S'C#CC[C@H](NC(=O)OC)C(=O)OC(C)(C)C'
p3248
I1
sS'COC(=O)Cl'
p3249
I-1
sS'C#CC[C@H](N)C(=O)OC(C)(C)C'
p3250
I-1
ssS'CC(=O)OC(C(=O)c1cccnc1)c1cc2cc(OC(F)(F)F)ccc2[nH]1>>CC(=O)OC(Cc1cccnc1)c1cc2cc(OC(F)(F)F)ccc2[nH]1'
p3251
(dp3252
g858
I-1
sg103
I1
ssS'CC(C)(C)OC(=O)n1c(CCN2C(=O)c3ccccc3C2=O)cc2ccccc21>>O=C1c2ccccc2C(=O)N1CCc1cc2ccccc2[nH]1'
p3253
(dp3254
g502
I1
sg520
I-1
ssS'Cn1cc(CC(N)C(=O)OCc2ccccc2)c2ccccc21>>Cn1cc(CC(N)C(=O)O)c2ccccc21'
p3255
(dp3256
S'Cn1cc(CC(N)C(=O)OCc2ccccc2)c2ccccc21'
p3257
I-1
sg108
I1
ssS'BrCc1c[nH]c2ccccc12.CC(=O)[O-]>>CC(=O)OCc1c[nH]c2ccccc12'
p3258
(dp3259
S'CC(=O)[O-]'
p3260
I-1
sS'BrCc1c[nH]c2ccccc12'
p3261
I-1
sS'CC(=O)OCc1c[nH]c2ccccc12'
p3262
I1
ssS'CCOC(=O)C(Cc1cn(C)c2ccccc12)NC(=O)OC(C)(C)C>>Cn1cc(CC(NC(=O)OC(C)(C)C)C(N)=O)c2ccccc21'
p3263
(dp3264
S'CCOC(=O)C(Cc1cn(C)c2ccccc12)NC(=O)OC(C)(C)C'
p3265
I-1
sg1594
I1
ssS'CCOC(=O)C=CC1Cc2ccccc2N1C(=O)OCc1ccccc1>>CCOC(=O)CCC1Cc2ccccc2N1C(=O)OCc1ccccc1'
p3266
(dp3267
g194
I1
sg855
I-1
ssS'COC(=O)N[C@@H](Cc1cc2ccccc2[nH]1)C(=O)OC(C)(C)C>>COC(=O)N[C@@H](Cc1cc2ccccc2[nH]1)C(=O)O'
p3268
(dp3269
g264
I-1
sg240
I1
ssS'FC(F)(F)Oc1ccc2[nH]ccc2c1.O=C(O)C(F)(F)F>>O=C(c1c[nH]c2ccc(OC(F)(F)F)cc12)C(F)(F)F'
p3270
(dp3271
S'FC(F)(F)Oc1ccc2[nH]ccc2c1'
p3272
I-1
sg975
I1
sS'O=C(O)C(F)(F)F'
p3273
I-1
ssS'Brc1cccnc1.Cc1ccc(S(=O)(=O)n2c(CC=O)cc3cc(OC(F)(F)F)ccc32)cc1>>Cc1ccc(S(=O)(=O)n2c(CC(O)c3cccnc3)cc3cc(OC(F)(F)F)ccc32)cc1'
p3274
(dp3275
S'Cc1ccc(S(=O)(=O)n2c(CC(O)c3cccnc3)cc3cc(OC(F)(F)F)ccc32)cc1'
p3276
I1
sS'Cc1ccc(S(=O)(=O)n2c(CC=O)cc3cc(OC(F)(F)F)ccc32)cc1'
p3277
I-1
sS'Brc1cccnc1'
p3278
I-1
ssS'C#C[Si](C)(C)C.CS(=O)(=O)Nc1ccc(OC(F)(F)F)cc1I>>C[Si](C)(C)C#Cc1cc(OC(F)(F)F)ccc1NS(C)(=O)=O'
p3279
(dp3280
S'C#C[Si](C)(C)C'
p3281
I-1
sg752
I1
sS'CS(=O)(=O)Nc1ccc(OC(F)(F)F)cc1I'
p3282
I-1
ssS'BrCc1c[nH]c2ccccc12.CCOC(=O)C(NC(C)=O)C(=O)OCC>>CCOC(=O)C(Cc1c[nH]c2ccccc12)(NC(C)=O)C(=O)OCC'
p3283
(dp3284
S'CCOC(=O)C(NC(C)=O)C(=O)OCC'
p3285
I-1
sS'BrCc1c[nH]c2ccccc12'
p3286
I-1
sg2958
I1
ssS'C#CCC#N.CCOC(=O)Nc1ccccc1I>>CCOC(=O)Nc1ccccc1C#CCC#N'
p3287
(dp3288
S'CCOC(=O)Nc1ccccc1I'
p3289
I-1
sS'C#CCC#N'
p3290
I-1
sg2278
I1
ssS'COC(=O)C1Cc2ccccc2N1C(=O)OCc1ccccc1>>O=C(OCc1ccccc1)N1c2ccccc2CC1CO'
p3291
(dp3292
g3109
I1
sg2685
I-1
ssS'Cc1ccc(S(=O)(=O)Cl)cc1.Nc1ccccc1Cl>>Cc1ccc(S(=O)(=O)Nc2ccccc2Cl)cc1'
p3293
(dp3294
S'Nc1ccccc1Cl'
p3295
I-1
sS'Cc1ccc(S(=O)(=O)Nc2ccccc2Cl)cc1'
p3296
I1
sS'Cc1ccc(S(=O)(=O)Cl)cc1'
p3297
I-1
ssS'NCc1c[nH]c2ccccc12.S=C=S>>S=C(S)NCc1c[nH]c2ccccc12'
p3298
(dp3299
g1414
I1
sS'NCc1c[nH]c2ccccc12'
p3300
I-1
sS'S=C=S'
p3301
I-1
ssS'CN.COC(=O)C(Cc1c[nH]c2ccccc12)N=C=O>>CNC(=O)NC(Cc1c[nH]c2ccccc12)C(=O)OC'
p3302
(dp3303
S'COC(=O)C(Cc1c[nH]c2ccccc12)N=C=O'
p3304
I-1
sS'CN'
p3305
I-1
sg1032
I1
ssS'CC(=O)NC(Cc1cn(C)c2ccccc12)(C(=O)O)C(=O)O>>CC(=O)NC(Cc1cn(C)c2ccccc12)C(=O)O'
p3306
(dp3307
g2005
I-1
sg1876
I1
ssS'CCO.Cn1cc(CC(N)C(=O)O)c2ccccc21>>CCOC(=O)C(N)Cc1cn(C)c2ccccc12'
p3308
(dp3309
S'CCO'
p3310
I-1
sS'Cn1cc(CC(N)C(=O)O)c2ccccc21'
p3311
I-1
sS'CCOC(=O)C(N)Cc1cn(C)c2ccccc12'
p3312
I1
ssS'Cn1cc(CC(NC(=O)OCc2ccccc2)C(=O)O)c2ccccc21>>Cn1cc(CC2NC(=O)OC2=O)c2ccccc21'
p3313
(dp3314
S'Cn1cc(CC(NC(=O)OCc2ccccc2)C(=O)O)c2ccccc21'
p3315
I-1
sg2802
I1
ssS'O=C(c1cncc(I)c1)C(O)c1cc2cc(OC(F)(F)F)ccc2[nH]1>>O=C(c1cccnc1)C(O)c1cc2cc(OC(F)(F)F)ccc2[nH]1'
p3316
(dp3317
g1809
I-1
sg135
I1
ssS'CC(C)(C)OC(=O)OC(=O)OC(C)(C)C.NCCCCCBr>>CC(C)(C)OC(=O)NCCCCCBr'
p3318
(dp3319
S'CC(C)(C)OC(=O)NCCCCCBr'
p3320
I1
sS'NCCCCCBr'
p3321
I-1
sS'CC(C)(C)OC(=O)OC(=O)OC(C)(C)C'
p3322
I-1
ssS'CC(C)(C)OC(=O)OC(=O)OC(C)(C)C.CC1c2[nH]c3ccccc3c2CC2C(=O)N(C)C(=O)N21>>CC1c2c(c3ccccc3n2C(=O)OC(C)(C)C)CC2C(=O)N(C)C(=O)N21'
p3323
(dp3324
g2150
I1
sS'CC1c2[nH]c3ccccc3c2CC2C(=O)N(C)C(=O)N21'
p3325
I-1
sS'CC(C)(C)OC(=O)OC(=O)OC(C)(C)C'
p3326
I-1
ssS'CC(C)(C)OC(=O)NC(Cc1c[nH]c2ccccc12)C(=O)OC(C)(C)C.CI>>Cn1cc(CC(NC(=O)OC(C)(C)C)C(=O)OC(C)(C)C)c2ccccc21'
p3327
(dp3328
S'CC(C)(C)OC(=O)NC(Cc1c[nH]c2ccccc12)C(=O)OC(C)(C)C'
p3329
I-1
sS'CI'
p3330
I-1
sg2079
I1
ssS'C=[N+](C)C.c1ccc2[nH]ccc2c1>>CN(C)Cc1c[nH]c2ccccc12'
p3331
(dp3332
S'C=[N+](C)C'
p3333
I-1
sg55
I1
sS'c1ccc2[nH]ccc2c1'
p3334
I-1
ssS'CC(C)(C)[Si](C)(C)OC(CO)c1cc2cc(OC(F)(F)F)ccc2[nH]1>>CC(C)(C)[Si](C)(C)OC(C=O)c1cc2cc(OC(F)(F)F)ccc2[nH]1'
p3335
(dp3336
g671
I-1
sg793
I1
ssS'CC1(C)OBOC1(C)C.CC1(C)OBOC1(C)C>>CC1(C)OB(B2OC(C)(C)C(C)(C)O2)OC1(C)C'
p3337
(dp3338
S'CC1(C)OBOC1(C)C'
p3339
I-1
sS'CC1(C)OB(B2OC(C)(C)C(C)(C)O2)OC1(C)C'
p3340
I1
ssS'CC(=O)n1c(CCCl)cc2ccccc21.O=C1[N-]C(=O)c2ccccc21>>CC(=O)n1c(CCN2C(=O)c3ccccc3C2=O)cc2ccccc21'
p3341
(dp3342
S'O=C1[N-]C(=O)c2ccccc21'
p3343
I-1
sS'CC(=O)n1c(CCCl)cc2ccccc21'
p3344
I-1
sg2389
I1
ssS'ClCCCCCBr.O=C1[N-]C(=O)c2ccccc21>>O=C1c2ccccc2C(=O)N1CCCCCCl'
p3345
(dp3346
S'O=C1[N-]C(=O)c2ccccc21'
p3347
I-1
sS'ClCCCCCBr'
p3348
I-1
sg1712
I1
ssS'O=C(OC(C(=O)c1cccnc1)c1cc2cc(OC(F)(F)F)ccc2[nH]1)c1ccc([N+](=O)[O-])cc1>>O=C(c1cccnc1)C(O)c1cc2cc(OC(F)(F)F)ccc2[nH]1'
p3349
(dp3350
g2059
I-1
sg135
I1
ssS'O=Cc1c[nH]c2ccc(OC(F)(F)F)cc12>>N#Cc1c[nH]c2ccc(OC(F)(F)F)cc12'
p3351
(dp3352
g1848
I1
sS'O=Cc1c[nH]c2ccc(OC(F)(F)F)cc12'
p3353
I-1
ssS'CCOC(=O)c1c[nH]c2ccc(OC(F)(F)F)cc12.CNC>>CN(C)C(=O)c1c[nH]c2ccc(OC(F)(F)F)cc12'
p3354
(dp3355
g2644
I1
sS'CCOC(=O)c1c[nH]c2ccc(OC(F)(F)F)cc12'
p3356
I-1
sS'CNC'
p3357
I-1
ssS'COC(=O)NC(Cc1cc2ccccc2[nH]1)C(=O)O>>NC(Cc1cc2ccccc2[nH]1)C(=O)O'
p3358
(dp3359
g637
I-1
sg61
I1
ssS'C#CC[C@H](NC(=O)OCc1ccccc1)C(=O)OC>>C#CC[C@H](N)C(=O)OC'
p3360
(dp3361
g2268
I1
sS'C#CC[C@H](NC(=O)OCc1ccccc1)C(=O)OC'
p3362
I-1
ssS'CN1C(=O)C(CC2CNc3ccccc32)N(C(=O)OCc2ccccc2)C1=O>>CN1C(=O)NC(CC2CNc3ccccc32)C1=O'
p3363
(dp3364
g1645
I-1
sg1210
I1
ssS'C#CCCN1C(=O)c2ccccc2C1=O.CC(C)(C)OC(=O)Nc1ccccc1I>>CC(C)(C)OC(=O)Nc1ccccc1C#CCCN1C(=O)c2ccccc2C1=O'
p3365
(dp3366
g519
I1
sS'CC(C)(C)OC(=O)Nc1ccccc1I'
p3367
I-1
sS'C#CCCN1C(=O)c2ccccc2C1=O'
p3368
I-1
ssS'CC(C)(C)OC(=O)NCCCCCN.O=C(OC(=O)C(F)(F)F)C(F)(F)F>>CC(C)(C)OC(=O)NCCCCCNC(=O)C(F)(F)F'
p3369
(dp3370
S'O=C(OC(=O)C(F)(F)F)C(F)(F)F'
p3371
I-1
sS'CC(C)(C)OC(=O)NCCCCCN'
p3372
I-1
sg139
I1
ssS'ClCCCCCCl.O=C1[N-]C(=O)c2ccccc21>>O=C1c2ccccc2C(=O)N1CCCCCCl'
p3373
(dp3374
S'O=C1[N-]C(=O)c2ccccc21'
p3375
I-1
sS'ClCCCCCCl'
p3376
I-1
sg1712
I1
ssS'CC(C)(O)C(C)(C)O.CC(C)(O)C(C)(C)O>>CC1(C)OB(B2OC(C)(C)C(C)(C)O2)OC1(C)C'
p3377
(dp3378
S'CC(C)(O)C(C)(C)O'
p3379
I-1
sg3340
I1
ssS'CCOC(=O)C(NC(C)=O)C(=O)OCc1ccccc1.CN(C)Cc1cn(C)c2ccccc12>>CCOC(=O)C(Cc1cn(C)c2ccccc12)(NC(C)=O)C(=O)OCc1ccccc1'
p3380
(dp3381
S'CN(C)Cc1cn(C)c2ccccc12'
p3382
I-1
sg2242
I1
sS'CCOC(=O)C(NC(C)=O)C(=O)OCc1ccccc1'
p3383
I-1
ssS'CC(C)(C)OC(=O)NC(Cc1cc2ccccc2[nH]1)C(=O)O>>CC(C)(C)OC(=O)NC(Cc1cc2ccccc2[nH]1)C(N)=O'
p3384
(dp3385
g2216
I1
sS'CC(C)(C)OC(=O)NC(Cc1cc2ccccc2[nH]1)C(=O)O'
p3386
I-1
ssS'O=C(Cc1cc2ccccc2[nH]1)NCc1ccccc1>>c1ccc(CNCCc2cc3ccccc3[nH]2)cc1'
p3387
(dp3388
S'O=C(Cc1cc2ccccc2[nH]1)NCc1ccccc1'
p3389
I-1
sg2571
I1
ssS'CC(C)(C)OC(=O)C(Cc1c[nH]c2ccccc12)NC(=O)OCc1ccccc1.CI>>Cn1cc(CC(NC(=O)OCc2ccccc2)C(=O)OC(C)(C)C)c2ccccc21'
p3390
(dp3391
S'CC(C)(C)OC(=O)C(Cc1c[nH]c2ccccc12)NC(=O)OCc1ccccc1'
p3392
I-1
sS'CI'
p3393
I-1
sg1325
I1
ssS'CN(C)CN(C)C.FC(F)(F)Oc1ccc2[nH]ccc2c1>>CN(C)Cc1c[nH]c2ccc(OC(F)(F)F)cc12'
p3394
(dp3395
g1230
I1
sS'FC(F)(F)Oc1ccc2[nH]ccc2c1'
p3396
I-1
sS'CN(C)CN(C)C'
p3397
I-1
ssS'Cn1cc(CC(NC(=O)OC(C)(C)C)C(=O)O)c2ccccc21>>Cn1cc(CC(NC(=O)OC(C)(C)C)C(N)=O)c2ccccc21'
p3398
(dp3399
S'Cn1cc(CC(NC(=O)OC(C)(C)C)C(=O)O)c2ccccc21'
p3400
I-1
sg2838
I1
ssS'CC(C)(C)OC(=O)N[C@@H](CCl)C(=O)OC(C)(C)C>>C=C(NC(=O)OC(C)(C)C)C(=O)OC(C)(C)C'
p3401
(dp3402
S'C=C(NC(=O)OC(C)(C)C)C(=O)OC(C)(C)C'
p3403
I1
sg1453
I-1
ssS'CCOC(=O)C(N)Cc1cn(C)c2ccccc12.O=CO>>CCOC(=O)C(Cc1cn(C)c2ccccc12)NC=O'
p3404
(dp3405
S'CCOC(=O)C(Cc1cn(C)c2ccccc12)NC=O'
p3406
I1
sS'O=CO'
p3407
I-1
sS'CCOC(=O)C(N)Cc1cn(C)c2ccccc12'
p3408
I-1
ssS'CC(C)OC(=O)C(Cc1c[nH]c2ccccc12)NC(=O)OC(C)(C)C.CI>>CC(C)OC(=O)C(Cc1cn(C)c2ccccc12)NC(=O)OC(C)(C)C'
p3409
(dp3410
S'CI'
p3411
I-1
sS'CC(C)OC(=O)C(Cc1cn(C)c2ccccc12)NC(=O)OC(C)(C)C'
p3412
I1
sS'CC(C)OC(=O)C(Cc1c[nH]c2ccccc12)NC(=O)OC(C)(C)C'
p3413
I-1
ssS'Nc1ccccc1C#CCCN1C(=O)c2ccccc2C1=O.O=S(=O)(Cl)c1ccccc1>>O=C1c2ccccc2C(=O)N1CCC#Cc1ccccc1NS(=O)(=O)c1ccccc1'
p3414
(dp3415
S'Nc1ccccc1C#CCCN1C(=O)c2ccccc2C1=O'
p3416
I-1
sg1222
I1
sS'O=S(=O)(Cl)c1ccccc1'
p3417
I-1
ssS'CC(C)(C)OC(=O)OC(=O)OC(C)(C)C.O=C1NC(=O)C(Cc2c[nH]c3ccccc23)N1>>CC(C)(C)OC(=O)n1cc(CC2NC(=O)NC2=O)c2ccccc21'
p3418
(dp3419
S'O=C1NC(=O)C(Cc2c[nH]c3ccccc23)N1'
p3420
I-1
sS'CC(C)(C)OC(=O)n1cc(CC2NC(=O)NC2=O)c2ccccc21'
p3421
I1
sS'CC(C)(C)OC(=O)OC(=O)OC(C)(C)C'
p3422
I-1
ssS'CCOC(=O)C(Cc1c[nH]c2ccccc12)NC(=O)NC>>CN1C(=O)NC(Cc2c[nH]c3ccccc23)C1=O'
p3423
(dp3424
g625
I1
sS'CCOC(=O)C(Cc1c[nH]c2ccccc12)NC(=O)NC'
p3425
I-1
ssS'CC(C)(C)OC(=O)CN=C(c1ccccc1)c1ccccc1.Cn1cc(CBr)c2ccccc21>>Cn1cc(CC(N=C(c2ccccc2)c2ccccc2)C(=O)OC(C)(C)C)c2ccccc21'
p3426
(dp3427
S'Cn1cc(CBr)c2ccccc21'
p3428
I-1
sg3242
I1
sS'CC(C)(C)OC(=O)CN=C(c1ccccc1)c1ccccc1'
p3429
I-1
ssS'N=C(N)Nc1ccccc1[N+](=O)[O-]>>Nc1nc2ccccc2[n+]([O-])n1'
p3430
(dp3431
g1703
I1
sg9
I-1
ssS'O=C1NC(=O)C(Cc2cc3ccccc3[nH]2)N1>>NC(=O)N[C@@H](Cc1cc2ccccc2[nH]1)C(=O)O'
p3432
(dp3433
g1366
I-1
sg692
I1
ssS'CCOC(=O)Cl.O=C(O)CC(=O)OCc1ccccc1>>CCOC(=O)CC(=O)OCc1ccccc1'
p3434
(dp3435
g1177
I1
sS'O=C(O)CC(=O)OCc1ccccc1'
p3436
I-1
sS'CCOC(=O)Cl'
p3437
I-1
ssS'COC(=O)N(C)C(=O)C(CC1C(=O)Nc2ccccc21)NC(=O)C(F)(F)F>>COC(=O)N(C)C(=O)C(N)CC1C(=O)Nc2ccccc21'
p3438
(dp3439
g897
I1
sg2849
I-1
ssS'CC(C)(C)O.NC(Cc1c[nH]c2ccccc12)C(=O)O>>CC(C)(C)OC(=O)C(N)Cc1c[nH]c2ccccc12'
p3440
(dp3441
S'CC(C)(C)O'
p3442
I-1
sg1216
I1
sS'NC(Cc1c[nH]c2ccccc12)C(=O)O'
p3443
I-1
ssS'C#CCC(NC(=O)OCc1ccccc1)C(=O)OC.Nc1ccccc1I>>COC(=O)C(CC#Cc1ccccc1N)NC(=O)OCc1ccccc1'
p3444
(dp3445
S'C#CCC(NC(=O)OCc1ccccc1)C(=O)OC'
p3446
I-1
sg2291
I1
sS'Nc1ccccc1I'
p3447
I-1
ssS'Cn1cc(CC2C(=O)OCC(c3ccccc3)N2C(=O)OC(C)(C)C)c2ccccc21>>Cn1cc(CC2NC(c3ccccc3)COC2=O)c2ccccc21'
p3448
(dp3449
S'Cn1cc(CC2C(=O)OCC(c3ccccc3)N2C(=O)OC(C)(C)C)c2ccccc21'
p3450
I-1
sg2719
I1
ssS'O=C(O)Cc1ccccc1[N+](=O)[O-]>>O=C(Cl)Cc1ccccc1[N+](=O)[O-]'
p3451
(dp3452
S'O=C(O)Cc1ccccc1[N+](=O)[O-]'
p3453
I-1
sg2529
I1
ssS'CN1C(=O)NC(Cc2cn(C(=O)OC(C)(C)C)c3ccccc23)C1=O>>CN1C(=O)NC(Cc2c[nH]c3ccccc23)C1=O'
p3454
(dp3455
g625
I1
sg126
I-1
ssS'CN(C)Cc1c[nH]c2ccc(OC(F)(F)F)cc12>>O=Cc1c[nH]c2ccc(OC(F)(F)F)cc12'
p3456
(dp3457
g1230
I-1
sg773
I1
ssS'COC(=O)C(N)Cc1c[nH]c2ccccc12.O=C(OC(=O)C(F)(F)F)C(F)(F)F>>COC(=O)C(Cc1c[nH]c2ccccc12)NC(=O)C(F)(F)F'
p3458
(dp3459
g2902
I1
sS'O=C(OC(=O)C(F)(F)F)C(F)(F)F'
p3460
I-1
sS'COC(=O)C(N)Cc1c[nH]c2ccccc12'
p3461
I-1
ssS'NC(Cc1cc2ccccc2[nH]1)C(=O)O.O=C(Cl)OCc1ccccc1>>O=C(NC(Cc1cc2ccccc2[nH]1)C(=O)O)OCc1ccccc1'
p3462
(dp3463
g580
I1
sS'O=C(Cl)OCc1ccccc1'
p3464
I-1
sS'NC(Cc1cc2ccccc2[nH]1)C(=O)O'
p3465
I-1
ssS'CN1C(=O)NC(CC2C(=O)Nc3ccccc32)C1=O.Cc1ccc(S(=O)(=O)Cl)cc1>>Cc1ccc(S(=O)(=O)N2C(=O)N(C)C(=O)C2CC2C(=O)Nc3ccccc32)cc1'
p3466
(dp3467
g315
I1
sS'CN1C(=O)NC(CC2C(=O)Nc3ccccc32)C1=O'
p3468
I-1
sS'Cc1ccc(S(=O)(=O)Cl)cc1'
p3469
I-1
ssS'NC(=O)Cc1cc2ccccc2[nH]1>>N#CCc1cc2ccccc2[nH]1'
p3470
(dp3471
g535
I1
sS'NC(=O)Cc1cc2ccccc2[nH]1'
p3472
I-1
ssS'COC(=O)C(N)Cc1cn(C)c2ccccc12>>Cn1cc(CC(N)C(=O)O)c2ccccc21'
p3473
(dp3474
g27
I-1
sg431
I1
ssS'CC(C)(C)O.O=C(Cl)Cl>>CC(C)(C)OC(=O)Cl'
p3475
(dp3476
S'CC(C)(C)O'
p3477
I-1
sS'O=C(Cl)Cl'
p3478
I-1
sS'CC(C)(C)OC(=O)Cl'
p3479
I1
ssS'OC(CBr)Cc1cccnc1>>c1cncc(CC2CO2)c1'
p3480
(dp3481
g946
I-1
sg167
I1
ssS'C#CCC(NC(=O)OC(C)(C)C)C(=O)OCC.Nc1ccccc1I>>CCOC(=O)C(CC#Cc1ccccc1N)NC(=O)OC(C)(C)C'
p3482
(dp3483
g955
I1
sS'Nc1ccccc1I'
p3484
I-1
sS'C#CCC(NC(=O)OC(C)(C)C)C(=O)OCC'
p3485
I-1
ssS'COC(=O)C(N)Cc1c[nH]c2ccccc12>>NC(Cc1c[nH]c2ccccc12)C(=O)O'
p3486
(dp3487
S'COC(=O)C(N)Cc1c[nH]c2ccccc12'
p3488
I-1
sg499
I1
ssS'CC(=O)N[C@@H](Cc1cc2ccccc2[nH]1)C(=O)O>>N[C@@H](Cc1cc2ccccc2[nH]1)C(=O)O'
p3489
(dp3490
g239
I1
sg943
I-1
ssS'Cn1cc(CC(N)C(=O)O)c2ccccc21.O=C(Cl)OCc1ccccc1>>Cn1cc(CC(NC(=O)OCc2ccccc2)C(=O)O)c2ccccc21'
p3491
(dp3492
g190
I1
sS'Cn1cc(CC(N)C(=O)O)c2ccccc21'
p3493
I-1
sS'O=C(Cl)OCc1ccccc1'
p3494
I-1
ssS'CN1C(=O)NC(CC2CNc3ccccc32)C1=O>>CN1C(=O)NC(Cc2c[nH]c3ccccc23)C1=O'
p3495
(dp3496
g625
I1
sg1210
I-1
ssS'O=C(CCl)N[C@@H](Cc1cc2ccccc2[nH]1)C(=O)OCc1ccccc1>>O=C(CCl)N[C@@H](Cc1cc2ccccc2[nH]1)C(=O)O'
p3497
(dp3498
g827
I-1
sg1060
I1
ssS'CC(=O)N1CCc2cc(OC(F)(F)F)ccc21>>FC(F)(F)Oc1ccc2c(c1)CCN2'
p3499
(dp3500
g1287
I1
sg2138
I-1
ssS'CCOC(=O)C(NC(C)=O)C(=O)OCC.CN(C)Cc1c[nH]c2ccccc12>>CCOC(=O)C(Cc1c[nH]c2ccccc12)(NC(C)=O)C(=O)OCC'
p3501
(dp3502
S'CCOC(=O)C(NC(C)=O)C(=O)OCC'
p3503
I-1
sS'CN(C)Cc1c[nH]c2ccccc12'
p3504
I-1
sg2958
I1
ssS'CC(C)[Si](Cl)(C(C)C)C(C)C.c1ccc2[nH]ccc2c1>>CC(C)[Si](C(C)C)(C(C)C)n1ccc2ccccc21'
p3505
(dp3506
g318
I1
sS'c1ccc2[nH]ccc2c1'
p3507
I-1
sS'CC(C)[Si](Cl)(C(C)C)C(C)C'
p3508
I-1
ssS'CCOC(=O)C(Cc1cn(C)c2ccccc12)(NC=O)C(=O)OCC>>Cn1cc(CC(N)C(=O)O)c2ccccc21'
p3509
(dp3510
g431
I1
sg346
I-1
ssS'O=C(O)Cc1cc2ccccc2[nH]1>>OCCc1cc2ccccc2[nH]1'
p3511
(dp3512
g1184
I1
sS'O=C(O)Cc1cc2ccccc2[nH]1'
p3513
I-1
ssS'CNC(=O)Cl>>CN=C=O'
p3514
(dp3515
S'CNC(=O)Cl'
p3516
I-1
sg44
I1
ssS'C=[N+](C)C.Cn1ccc2ccccc21>>CN(C)Cc1cn(C)c2ccccc12'
p3517
(dp3518
S'C=[N+](C)C'
p3519
I-1
sg662
I1
sS'Cn1ccc2ccccc21'
p3520
I-1
ssS'C#CC[C@H](N)C(=O)OC.CC(C)(C)OC(=O)OC(=O)OC(C)(C)C>>C#CC[C@H](NC(=O)OC(C)(C)C)C(=O)OC'
p3521
(dp3522
S'C#CC[C@H](NC(=O)OC(C)(C)C)C(=O)OC'
p3523
I1
sS'C#CC[C@H](N)C(=O)OC'
p3524
I-1
sS'CC(C)(C)OC(=O)OC(=O)OC(C)(C)C'
p3525
I-1
ssS'CCOC(=O)C(Cc1cc2ccccc2[nH]1)NC(=O)OCc1ccccc1>>NC(=O)C(Cc1cc2ccccc2[nH]1)NC(=O)OCc1ccccc1'
p3526
(dp3527
S'CCOC(=O)C(Cc1cc2ccccc2[nH]1)NC(=O)OCc1ccccc1'
p3528
I-1
sg1160
I1
ssS'O=C1c2ccccc2C(=O)N1CCCCCCl>>NCCCCCCl'
p3529
(dp3530
g3117
I1
sS'O=C1c2ccccc2C(=O)N1CCCCCCl'
p3531
I-1
ssS'O=C(Cc1ccccc1)NC(Cc1cc2ccccc2[nH]1)C(=O)OCc1ccccc1>>O=C(Cc1ccccc1)NC(Cc1cc2ccccc2[nH]1)C(=O)O'
p3532
(dp3533
g243
I1
sg2834
I-1
ssS'O=C1c2ccccc2C(=O)N1CCCCCBr>>NCCCCCN1C(=O)c2ccccc2C1=O'
p3534
(dp3535
S'NCCCCCN1C(=O)c2ccccc2C1=O'
p3536
I1
sg291
I-1
ssS'Cn1cc(CC(NC(=O)OCc2ccccc2)C(=O)O)c2ccccc21>>Cn1cc(CC(N)C(=O)O)c2ccccc21'
p3537
(dp3538
g190
I-1
sg108
I1
ssS'CCO.N#CCC#Cc1ccccc1C(N)=O>>CCOC(=O)Nc1ccccc1C#CCC#N'
p3539
(dp3540
S'CCO'
p3541
I-1
sg2278
I1
sS'N#CCC#Cc1ccccc1C(N)=O'
p3542
I-1
ssS'COC(=O)c1cc2cc(OC(F)(F)F)ccc2[nH]1>>O=C(O)c1cc2cc(OC(F)(F)F)ccc2[nH]1'
p3543
(dp3544
S'COC(=O)c1cc2cc(OC(F)(F)F)ccc2[nH]1'
p3545
I-1
sS'O=C(O)c1cc2cc(OC(F)(F)F)ccc2[nH]1'
p3546
I1
ssS'C[Si](C)(C)Cl.Cc1cc(OC(F)(F)F)ccc1N>>Cc1cc(OC(F)(F)F)ccc1N[Si](C)(C)C'
p3547
(dp3548
S'Cc1cc(OC(F)(F)F)ccc1N'
p3549
I-1
sg1280
I1
sS'C[Si](C)(C)Cl'
p3550
I-1
ssS'CNC.O=C(O)c1c[nH]c2ccc(OC(F)(F)F)cc12>>CN(C)C(=O)c1c[nH]c2ccc(OC(F)(F)F)cc12'
p3551
(dp3552
S'O=C(O)c1c[nH]c2ccc(OC(F)(F)F)cc12'
p3553
I-1
sS'CNC'
p3554
I-1
sg2644
I1
ssS'CC(=O)NC(Cc1cc2ccccc2[nH]1)C(=O)O>>N[C@@H](Cc1cc2ccccc2[nH]1)C(=O)O'
p3555
(dp3556
S'CC(=O)NC(Cc1cc2ccccc2[nH]1)C(=O)O'
p3557
I-1
sg239
I1
ssS'CCOC(=O)C(N)Cc1cc2ccccc2[nH]1.COC(=O)Cl>>CCOC(=O)C(Cc1cc2ccccc2[nH]1)NC(=O)OC'
p3558
(dp3559
g636
I1
sS'COC(=O)Cl'
p3560
I-1
sS'CCOC(=O)C(N)Cc1cc2ccccc2[nH]1'
p3561
I-1
ssS'CC(=O)C(=O)O.Nc1ccc(OC(F)(F)F)cc1I>>O=C(O)c1cc2cc(OC(F)(F)F)ccc2[nH]1'
p3562
(dp3563
S'CC(=O)C(=O)O'
p3564
I-1
sg3546
I1
sS'Nc1ccc(OC(F)(F)F)cc1I'
p3565
I-1
ssS'CCOC(=O)C(Cc1cc2ccccc2[nH]1)NC(=O)OCc1ccccc1.CNC(C)C(O)c1ccccc1>>CC(C(O)c1ccccc1)N(C)C(=O)C(Cc1cc2ccccc2[nH]1)NC(=O)OCc1ccccc1'
p3566
(dp3567
g2283
I1
sS'CCOC(=O)C(Cc1cc2ccccc2[nH]1)NC(=O)OCc1ccccc1'
p3568
I-1
sS'CNC(C)C(O)c1ccccc1'
p3569
I-1
ssS'C=CCO.Cn1cc(CC(/N=C/c2ccccc2)C(=O)O)c2ccccc21>>C=CCOC(=O)C(Cc1cn(C)c2ccccc12)/N=C/c1ccccc1'
p3570
(dp3571
S'C=CCO'
p3572
I-1
sS'Cn1cc(CC(/N=C/c2ccccc2)C(=O)O)c2ccccc21'
p3573
I-1
sg3027
I1
ssS'Cc1ccc(S(=O)(=O)Nc2ccc(OC(F)(F)F)cc2I)cc1.ICCI>>Cc1ccc(S(=O)(=O)N(CCI)c2ccc(OC(F)(F)F)cc2I)cc1'
p3574
(dp3575
S'ICCI'
p3576
I-1
sS'Cc1ccc(S(=O)(=O)Nc2ccc(OC(F)(F)F)cc2I)cc1'
p3577
I-1
sg2450
I1
ssS'O=Cc1c[nH]c2ccc(OC(F)(F)F)cc12>>O=C(O)c1c[nH]c2ccc(OC(F)(F)F)cc12'
p3578
(dp3579
g1129
I1
sS'O=Cc1c[nH]c2ccc(OC(F)(F)F)cc12'
p3580
I-1
ssS'CC(C)(C)OC(=O)NCCCCCN.[O-][n+]1nc(Cl)nc2ccccc21>>CC(C)(C)OC(=O)NCCCCCNc1nc2ccccc2[n+]([O-])n1'
p3581
(dp3582
S'CC(C)(C)OC(=O)NCCCCCN'
p3583
I-1
sS'[O-][n+]1nc(Cl)nc2ccccc21'
p3584
I-1
sg2977
I1
ssS'O=C(c1cccnc1)C(O)c1cc2cc(OC(F)(F)F)ccc2[nH]1>>CC(=O)OC(C(=O)c1cccnc1)c1cc2cc(OC(F)(F)F)ccc2[nH]1'
p3585
(dp3586
g858
I1
sS'O=C(c1cccnc1)C(O)c1cc2cc(OC(F)(F)F)ccc2[nH]1'
p3587
I-1
ssS'CNOC.O=C(Cl)Cc1cccnc1>>CON(C)C(=O)Cc1cccnc1'
p3588
(dp3589
g850
I1
sS'CNOC'
p3590
I-1
sS'O=C(Cl)Cc1cccnc1'
p3591
I-1
ssS'COC(=O)C(Cc1cn(C)c2ccccc12)NC=O>>Cn1cc(CC(N)C(=O)O)c2ccccc21'
p3592
(dp3593
S'COC(=O)C(Cc1cn(C)c2ccccc12)NC=O'
p3594
I-1
sg431
I1
ssS'N#Cc1c(C(O)Cc2cccnc2)[nH]c2ccc(OC(F)(F)F)cc12>>O=Cc1c(C(O)Cc2cccnc2)[nH]c2ccc(OC(F)(F)F)cc12'
p3595
(dp3596
g2275
I1
sS'N#Cc1c(C(O)Cc2cccnc2)[nH]c2ccc(OC(F)(F)F)cc12'
p3597
I-1
ssS'CO.NC(Cc1c[nH]c2ccccc12)C(=O)O>>COC(=O)C(N)Cc1c[nH]c2ccccc12'
p3598
(dp3599
S'CO'
p3600
I-1
sS'NC(Cc1c[nH]c2ccccc12)C(=O)O'
p3601
I-1
sg1181
I1
ssS'COC(=O)C(CC#C[Si](C)(C)C)NC(=O)OC(C)(C)C>>C#CCC(NC(=O)OC(C)(C)C)C(=O)OC'
p3602
(dp3603
g2534
I-1
sg1098
I1
ssS'Cn1cc(CC(NC(=O)OC(C)(C)C)C(=O)O)c2ccccc21.NCCCCCNc1nc2ccccc2[n+]([O-])n1>>Cn1cc(CC(NC(=O)OC(C)(C)C)C(=O)NCCCCCNc2nc3ccccc3[n+]([O-])n2)c2ccccc21'
p3604
(dp3605
S'NCCCCCNc1nc2ccccc2[n+]([O-])n1'
p3606
I-1
sS'Cn1cc(CC(NC(=O)OC(C)(C)C)C(=O)O)c2ccccc21'
p3607
I-1
sg937
I1
ssS'COC(=O)C(CO)NC(=O)OC(C)(C)C>>C=C(NC(=O)OC(C)(C)C)C(=O)OC'
p3608
(dp3609
g585
I1
sS'COC(=O)C(CO)NC(=O)OC(C)(C)C'
p3610
I-1
ssS'O=C(O)Cc1cc2ccccc2[nH]1.c1ccc2[nH]nnc2c1>>O=C(Cc1cc2ccccc2[nH]1)n1nnc2ccccc21'
p3611
(dp3612
S'c1ccc2[nH]nnc2c1'
p3613
I-1
sg1532
I1
sS'O=C(O)Cc1cc2ccccc2[nH]1'
p3614
I-1
ssS'NC(=S)Nc1ccccc1[N+](=O)[O-]>>N#CNc1ccccc1[N+](=O)[O-]'
p3615
(dp3616
S'NC(=S)Nc1ccccc1[N+](=O)[O-]'
p3617
I-1
sg86
I1
ssS'COC(=O)CC(=O)Cc1ccccc1[N+](=O)[O-]>>COC(=O)Cc1cc2ccccc2[nH]1'
p3618
(dp3619
g2584
I1
sg818
I-1
ssS'O=CCc1cccnc1.[Li]C#C[Si](C)(C)C>>C[Si](C)(C)C#CC(O)Cc1cccnc1'
p3620
(dp3621
S'[Li]C#C[Si](C)(C)C'
p3622
I-1
sg593
I1
sS'O=CCc1cccnc1'
p3623
I-1
ssS'CC(C)(C)[Si](C)(C)OC(c1cc2cc(OC(F)(F)F)ccc2[nH]1)C(O)c1cncc(I)c1>>CC(C)(C)[Si](C)(C)OC(C(=O)c1cncc(I)c1)c1cc2cc(OC(F)(F)F)ccc2[nH]1'
p3624
(dp3625
g1810
I1
sg1654
I-1
ssS'CC(=O)OC(C)=O.O=C(c1cccnc1)C(O)c1cc2cc(OC(F)(F)F)ccc2[nH]1>>CC(=O)OC(C(=O)c1cccnc1)c1cc2cc(OC(F)(F)F)ccc2[nH]1'
p3626
(dp3627
g858
I1
sS'CC(=O)OC(C)=O'
p3628
I-1
sS'O=C(c1cccnc1)C(O)c1cc2cc(OC(F)(F)F)ccc2[nH]1'
p3629
I-1
ssS'CCOC(=O)c1cc2cc(OC(F)(F)F)ccc2[nH]1>>O=C(O)c1cc2cc(OC(F)(F)F)ccc2[nH]1'
p3630
(dp3631
S'CCOC(=O)c1cc2cc(OC(F)(F)F)ccc2[nH]1'
p3632
I-1
sg3546
I1
ssS'CCOC(=O)C(N)Cc1cn(C)c2ccccc12>>Cn1cc(CC(N)CO)c2ccccc21'
p3633
(dp3634
S'Cn1cc(CC(N)CO)c2ccccc21'
p3635
I1
sS'CCOC(=O)C(N)Cc1cn(C)c2ccccc12'
p3636
I-1
ssS'CCOC(=O)c1cc2cc(OC(F)(F)F)ccc2[nH]1.Cc1cccnc1>>O=C(Cc1cccnc1)c1cc2cc(OC(F)(F)F)ccc2[nH]1'
p3637
(dp3638
g1883
I1
sS'CCOC(=O)c1cc2cc(OC(F)(F)F)ccc2[nH]1'
p3639
I-1
sS'Cc1cccnc1'
p3640
I-1
ssS'COC(Cc1cccnc1)OC.SCCCS>>c1cncc(CC2SCCCS2)c1'
p3641
(dp3642
g3160
I1
sS'SCCCS'
p3643
I-1
sS'COC(Cc1cccnc1)OC'
p3644
I-1
ssS'C#C[Si](C)(C)C.O=CCc1cccnc1>>C[Si](C)(C)C#CC(O)Cc1cccnc1'
p3645
(dp3646
S'C#C[Si](C)(C)C'
p3647
I-1
sg593
I1
sS'O=CCc1cccnc1'
p3648
I-1
ssS'CN(C)CN(C)C.Cn1ccc2ccccc21>>CN(C)Cc1cn(C)c2ccccc12'
p3649
(dp3650
g662
I1
sS'Cn1ccc2ccccc21'
p3651
I-1
sS'CN(C)CN(C)C'
p3652
I-1
ssS'Brc1c[nH]c2ccccc12.C=C(NC(=O)OC(C)(C)C)C(=O)OC>>COC(=O)C(=Cc1c[nH]c2ccccc12)NC(=O)OC(C)(C)C'
p3653
(dp3654
S'C=C(NC(=O)OC(C)(C)C)C(=O)OC'
p3655
I-1
sg934
I1
sS'Brc1c[nH]c2ccccc12'
p3656
I-1
ssS'C=C(C)C.N[C@@H](CCl)C(=O)O>>CC(C)(C)OC(=O)[C@@H](N)CCl'
p3657
(dp3658
S'C=C(C)C'
p3659
I-1
sS'N[C@@H](CCl)C(=O)O'
p3660
I-1
sS'CC(C)(C)OC(=O)[C@@H](N)CCl'
p3661
I1
ssS'CC(C)(C)OC(=O)OC(=O)OC(C)(C)C.Cn1cc(CC2NC(=O)OC2=O)c2ccccc21>>Cn1cc(CC2C(=O)OC(=O)N2C(=O)OC(C)(C)C)c2ccccc21'
p3662
(dp3663
g735
I1
sS'Cn1cc(CC2NC(=O)OC2=O)c2ccccc21'
p3664
I-1
sS'CC(C)(C)OC(=O)OC(=O)OC(C)(C)C'
p3665
I-1
ssS'Nc1ccccc1C#CCCO>>OCCc1cc2ccccc2[nH]1'
p3666
(dp3667
g1024
I-1
sg1184
I1
ssS'Cn1cc(CC(NC(=O)c2ccccc2)C(=O)OC(C)(C)C)c2ccccc21>>Cn1cc(CC(NC(=O)c2ccccc2)C(=O)O)c2ccccc21'
p3668
(dp3669
g1356
I-1
sg645
I1
ssS'C[Si](C)(C)C#C[Si](C)(C)C.O=CCc1cccnc1>>C[Si](C)(C)C#CC(O)Cc1cccnc1'
p3670
(dp3671
g593
I1
sS'C[Si](C)(C)C#C[Si](C)(C)C'
p3672
I-1
sS'O=CCc1cccnc1'
p3673
I-1
ssS'COCBr.c1ccc2[nH]ccc2c1>>COCn1ccc2ccccc21'
p3674
(dp3675
g270
I1
sS'COCBr'
p3676
I-1
sS'c1ccc2[nH]ccc2c1'
p3677
I-1
ssS'NCc1ccccc1.O=C(O)Cc1cc2ccccc2[nH]1>>O=C(Cc1cc2ccccc2[nH]1)NCc1ccccc1'
p3678
(dp3679
g3389
I1
sS'O=C(O)Cc1cc2ccccc2[nH]1'
p3680
I-1
sS'NCc1ccccc1'
p3681
I-1
ssS'CCOC(=O)CC(=O)Cc1ccccc1[N+](=O)[O-]>>O=C(O)CC(=O)Cc1ccccc1[N+](=O)[O-]'
p3682
(dp3683
S'CCOC(=O)CC(=O)Cc1ccccc1[N+](=O)[O-]'
p3684
I-1
sg1194
I1
ssS'Cn1cc(CC(NC(=O)OC(C)(C)C)C(=O)OCc2ccccc2)c2ccccc21>>Cn1cc(CC(NC(=O)OC(C)(C)C)C(=O)O)c2ccccc21'
p3685
(dp3686
S'Cn1cc(CC(NC(=O)OC(C)(C)C)C(=O)OCc2ccccc2)c2ccccc21'
p3687
I-1
sg176
I1
ssS'N#CCC(=O)Cc1ccccc1[N+](=O)[O-]>>N#CCc1cc2ccccc2[nH]1'
p3688
(dp3689
g3089
I-1
sg535
I1
ssS'CCOC(=O)C(NC(C)=O)C(=O)OCC.CN(C)Cc1c[nH]c2cc(Br)ccc12>>CCOC(=O)C(Cc1c[nH]c2cc(Br)ccc12)(NC(C)=O)C(=O)OCC'
p3690
(dp3691
S'CCOC(=O)C(NC(C)=O)C(=O)OCC'
p3692
I-1
sS'CN(C)Cc1c[nH]c2cc(Br)ccc12'
p3693
I-1
sg1980
I1
ssS'Cn1cc(CC(C(=O)O)N(C(=O)OC(C)(C)C)C(C=O)c2ccccc2)c2ccccc21>>Cn1cc(CC(C(=O)O)N(C(=O)OC(C)(C)C)C(CO)c2ccccc2)c2ccccc21'
p3694
(dp3695
g121
I-1
sS'Cn1cc(CC(C(=O)O)N(C(=O)OC(C)(C)C)C(CO)c2ccccc2)c2ccccc21'
p3696
I1
ssS'C#CC[C@H](NC(=O)OC(C)(C)C)C(=O)OC>>C#CC[C@H](N)C(=O)OC'
p3697
(dp3698
S'C#CC[C@H](NC(=O)OC(C)(C)C)C(=O)OC'
p3699
I-1
sg2268
I1
ssS'CC(=O)OC(C)=O.Cn1ccc2ccccc21.NC(CO)C(=O)O>>CC(=O)NC(Cc1cn(C)c2ccccc12)C(=O)O'
p3700
(dp3701
g1876
I1
sS'Cn1ccc2ccccc21'
p3702
I-1
sS'CC(=O)OC(C)=O'
p3703
I-1
sS'NC(CO)C(=O)O'
p3704
I-1
ssS'CN=C(Cl)Cl>>CN=C=O'
p3705
(dp3706
S'CN=C(Cl)Cl'
p3707
I-1
sg44
I1
ssS'Cn1cc(CC(N)C(=O)OCc2ccccc2)c2ccccc21.O=C(Cl)c1ccccc1>>Cn1cc(CC(NC(=O)c2ccccc2)C(=O)OCc2ccccc2)c2ccccc21'
p3708
(dp3709
g2947
I1
sS'Cn1cc(CC(N)C(=O)OCc2ccccc2)c2ccccc21'
p3710
I-1
sS'O=C(Cl)c1ccccc1'
p3711
I-1
ssS'Nc1nc2ccccc2[n+]([O-])n1.O=C1c2ccccc2C(=O)N1CCCCCBr>>O=C1c2ccccc2C(=O)N1CCCCCNc1nc2ccccc2[n+]([O-])n1'
p3712
(dp3713
S'Nc1nc2ccccc2[n+]([O-])n1'
p3714
I-1
sS'O=C1c2ccccc2C(=O)N1CCCCCBr'
p3715
I-1
sg1091
I1
ssS'C#CC[C@H](N)C(=O)OC.O=C(Cl)OCc1ccccc1>>C#CC[C@H](NC(=O)OCc1ccccc1)C(=O)OC'
p3716
(dp3717
S'C#CC[C@H](N)C(=O)OC'
p3718
I-1
sS'C#CC[C@H](NC(=O)OCc1ccccc1)C(=O)OC'
p3719
I1
sS'O=C(Cl)OCc1ccccc1'
p3720
I-1
ssS'CC(C)(C)OC(=O)NCCc1cc2ccccc2[nH]1>>NCCc1cc2ccccc2[nH]1'
p3721
(dp3722
g884
I-1
sg78
I1
ssS'CC(C)(C)OC(=O)N[C@@H](CC#Cc1ccccc1[N+](=O)[O-])C(=O)OCc1ccccc1>>CC(C)(C)OC(=O)N[C@@H](CC#Cc1ccccc1N)C(=O)OCc1ccccc1'
p3723
(dp3724
g180
I1
sg1189
I-1
ssS'CN=C=S.NC(Cc1c[nH]c2ccccc12)C(=O)O>>CNC(=S)NC(Cc1c[nH]c2ccccc12)C(=O)O'
p3725
(dp3726
S'CN=C=S'
p3727
I-1
sS'NC(Cc1c[nH]c2ccccc12)C(=O)O'
p3728
I-1
sg629
I1
ssS'C#CCC(N)C(=O)OCC.O=C(Cl)OCc1ccccc1>>C#CCC(NC(=O)OCc1ccccc1)C(=O)OCC'
p3729
(dp3730
S'C#CCC(NC(=O)OCc1ccccc1)C(=O)OCC'
p3731
I1
sS'C#CCC(N)C(=O)OCC'
p3732
I-1
sS'O=C(Cl)OCc1ccccc1'
p3733
I-1
ssS'COC(=O)c1cc2ccccc2n1S(=O)(=O)c1ccccc1>>O=S(=O)(c1ccccc1)n1c(CO)cc2ccccc21'
p3734
(dp3735
g809
I1
sg251
I-1
ssS'O=C1[N-]C(=O)c2ccccc21.OCCCCCCl>>O=C1c2ccccc2C(=O)N1CCCCCO'
p3736
(dp3737
S'O=C1[N-]C(=O)c2ccccc21'
p3738
I-1
sS'OCCCCCCl'
p3739
I-1
sg299
I1
ssS'CN=C=S>>CN=C(Cl)Cl'
p3740
(dp3741
S'CN=C=S'
p3742
I-1
sg3707
I1
ssS'Cc1ccc(S(=O)(=O)n2c(CC#N)cc3ccccc32)cc1>>N#CCc1cc2ccccc2[nH]1'
p3743
(dp3744
g2559
I-1
sg535
I1
ssS'O=C(OCc1ccccc1)N1c2ccccc2CC1CO>>O=CC1Cc2ccccc2N1C(=O)OCc1ccccc1'
p3745
(dp3746
S'O=CC1Cc2ccccc2N1C(=O)OCc1ccccc1'
p3747
I1
sS'O=C(OCc1ccccc1)N1c2ccccc2CC1CO'
p3748
I-1
ssS'O=[N+]([O-])/C=C/c1cc2ccccc2[nH]1>>NCCc1cc2ccccc2[nH]1'
p3749
(dp3750
S'O=[N+]([O-])/C=C/c1cc2ccccc2[nH]1'
p3751
I-1
sg78
I1
ssS'BrCc1ccccc1.C#CC[C@H](NC(=O)OC(C)(C)C)C(=O)O>>C#CC[C@H](NC(=O)OC(C)(C)C)C(=O)OCc1ccccc1'
p3752
(dp3753
S'BrCc1ccccc1'
p3754
I-1
sS'C#CC[C@H](NC(=O)OC(C)(C)C)C(=O)OCc1ccccc1'
p3755
I1
sS'C#CC[C@H](NC(=O)OC(C)(C)C)C(=O)O'
p3756
I-1
ssS'CON(C)C(=O)C(Cc1cn(C)c2ccccc12)NC(=O)OCc1ccccc1>>CON(C)C(=O)C(N)Cc1cn(C)c2ccccc12'
p3757
(dp3758
g2633
I-1
sS'CON(C)C(=O)C(N)Cc1cn(C)c2ccccc12'
p3759
I1
ssS'C#CC[C@H](NC(=O)OC)C(=O)OC(C)(C)C.O=[N+]([O-])c1ccccc1I>>COC(=O)N[C@@H](CC#Cc1ccccc1[N+](=O)[O-])C(=O)OC(C)(C)C'
p3760
(dp3761
S'C#CC[C@H](NC(=O)OC)C(=O)OC(C)(C)C'
p3762
I-1
sS'O=[N+]([O-])c1ccccc1I'
p3763
I-1
sg1639
I1
ssS'CCOC(=O)C(NC=O)C(=O)OCC.ClCc1cc2ccccc2[nH]1>>CCOC(=O)C(Cc1cc2ccccc2[nH]1)(NC=O)C(=O)OCC'
p3764
(dp3765
S'ClCc1cc2ccccc2[nH]1'
p3766
I-1
sS'CCOC(=O)C(NC=O)C(=O)OCC'
p3767
I-1
sg60
I1
ssS'CC(C)(C)OC(=O)N[C@@H](Cc1cc2ccccc2[nH]1)C(=O)OCc1ccccc1>>N[C@@H](Cc1cc2ccccc2[nH]1)C(=O)OCc1ccccc1'
p3768
(dp3769
S'CC(C)(C)OC(=O)N[C@@H](Cc1cc2ccccc2[nH]1)C(=O)OCc1ccccc1'
p3770
I-1
sS'N[C@@H](Cc1cc2ccccc2[nH]1)C(=O)OCc1ccccc1'
p3771
I1
ssS'CC(C)OC(=O)C(Cc1cn(C)c2ccccc12)NC(=O)OC(C)(C)C>>Cn1cc(CC(NC(=O)OC(C)(C)C)C(=O)O)c2ccccc21'
p3772
(dp3773
g3412
I-1
sg176
I1
ssS'CC(=O)OC(c1cc2cc(OC(F)(F)F)ccc2[nH]1)C(O)c1cccnc1>>CC(=O)OC(C(=O)c1cccnc1)c1cc2cc(OC(F)(F)F)ccc2[nH]1'
p3774
(dp3775
g858
I1
sg959
I-1
ssS'CCO.O=C(O)CC(=O)Cc1ccccc1[N+](=O)[O-]>>CCOC(=O)CC(=O)Cc1ccccc1[N+](=O)[O-]'
p3776
(dp3777
g1588
I1
sS'CCO'
p3778
I-1
sS'O=C(O)CC(=O)Cc1ccccc1[N+](=O)[O-]'
p3779
I-1
ssS'COC(=O)C(Cc1cn(C)c2ccccc12)N(C(=O)OC(C)(C)C)C(CO)c1ccccc1>>Cn1cc(CC(C(=O)O)N(C(=O)OC(C)(C)C)C(CO)c2ccccc2)c2ccccc21'
p3780
(dp3781
S'COC(=O)C(Cc1cn(C)c2ccccc12)N(C(=O)OC(C)(C)C)C(CO)c1ccccc1'
p3782
I-1
sg3696
I1
ssS'CCO.NC(Cc1c[nH]c2ccccc12)C(=O)O>>CCOC(=O)C(N)Cc1c[nH]c2ccccc12'
p3783
(dp3784
S'CCO'
p3785
I-1
sS'NC(Cc1c[nH]c2ccccc12)C(=O)O'
p3786
I-1
sg391
I1
ssS'COC(=O)N(C)C(=O)C(N)CC1C(=O)Nc2ccccc21>>CN1C(=O)NC(CC2C(=O)Nc3ccccc32)C1=O'
p3787
(dp3788
g897
I-1
sg2882
I1
ssS'O=C(O)c1cc2cc(OC(F)(F)F)ccc2[nH]1>>FC(F)(F)Oc1ccc2[nH]ccc2c1'
p3789
(dp3790
g1197
I1
sg3546
I-1
ssS'CCOC(=O)C(N)Cc1c[nH]c2ccccc12.CN=C=O>>CCOC(=O)C(Cc1c[nH]c2ccccc12)NC(=O)NC'
p3791
(dp3792
g2727
I1
sS'CN=C=O'
p3793
I-1
sS'CCOC(=O)C(N)Cc1c[nH]c2ccccc12'
p3794
I-1
ssS'C#CCCO.Cc1ccc(S(=O)(=O)Nc2ccc(OC(F)(F)F)cc2I)cc1>>Cc1ccc(S(=O)(=O)n2c(CCO)cc3cc(OC(F)(F)F)ccc32)cc1'
p3795
(dp3796
S'Cc1ccc(S(=O)(=O)Nc2ccc(OC(F)(F)F)cc2I)cc1'
p3797
I-1
sS'C#CCCO'
p3798
I-1
sg481
I1
ssS'CC(=O)Cl.OCc1c[nH]c2ccccc12>>CC(=O)OCc1c[nH]c2ccccc12'
p3799
(dp3800
S'OCc1c[nH]c2ccccc12'
p3801
I-1
sg1775
I1
sS'CC(=O)Cl'
p3802
I-1
ssS'CC(C)(C)OC(=O)NCCCCCO>>CC(C)(C)OC(=O)NCCCCCBr'
p3803
(dp3804
S'CC(C)(C)OC(=O)NCCCCCO'
p3805
I-1
sg3320
I1
ssS'C#CC[C@H](N=C(c1ccccc1)c1ccccc1)C(=O)OC(C)(C)C>>C#CC[C@H](N)C(=O)OC(C)(C)C'
p3806
(dp3807
g1729
I-1
sS'C#CC[C@H](N)C(=O)OC(C)(C)C'
p3808
I1
ssS'O=C1c2ccccc2C(=O)N1CCCCCNc1nc2ccccc2[n+]([O-])n1>>NCCCCCNc1nc2ccccc2[n+]([O-])n1'
p3809
(dp3810
g1091
I-1
sg450
I1
ssS'BrC(Br)(Br)Br.O=Cc1cc(OC(F)(F)F)ccc1[N+](=O)[O-]>>Nc1ccc(OC(F)(F)F)cc1C=C(Br)Br'
p3811
(dp3812
S'O=Cc1cc(OC(F)(F)F)ccc1[N+](=O)[O-]'
p3813
I-1
sg2335
I1
sS'BrC(Br)(Br)Br'
p3814
I-1
ssS'COC(=O)C(Cc1cn(C)c2ccccc12)N(C(=O)OC(C)(C)C)C(CO[Si](C)(C)C(C)(C)C)c1ccccc1>>COC(=O)C(Cc1cn(C)c2ccccc12)N(C(=O)OC(C)(C)C)C(CO)c1ccccc1'
p3815
(dp3816
g3782
I1
sg1529
I-1
ssS'CC(C)(C)O.N[C@@H](CCl)C(=O)O>>CC(C)(C)OC(=O)[C@@H](N)CCl'
p3817
(dp3818
S'CC(C)(C)O'
p3819
I-1
sS'N[C@@H](CCl)C(=O)O'
p3820
I-1
sg3661
I1
ssS'CC(=O)OC(Cc1cccnc1)c1cc2cc(OC(F)(F)F)ccc2[nH]1>>OC(Cc1cccnc1)c1cc2cc(OC(F)(F)F)ccc2[nH]1'
p3821
(dp3822
g658
I1
sg103
I-1
ssS'CCOC(=O)CCl.O=[N+]([O-])c1ccc(OC(F)(F)F)cc1>>CCOC(=O)Cc1cc(OC(F)(F)F)ccc1[N+](=O)[O-]'
p3823
(dp3824
S'O=[N+]([O-])c1ccc(OC(F)(F)F)cc1'
p3825
I-1
sS'CCOC(=O)Cc1cc(OC(F)(F)F)ccc1[N+](=O)[O-]'
p3826
I1
sS'CCOC(=O)CCl'
p3827
I-1
ssS'CCOC(=O)CC(=O)Cc1ccccc1[N+](=O)[O-]>>CCOC(=O)Cc1cc2ccccc2[nH]1'
p3828
(dp3829
g1588
I-1
sg813
I1
ssS'C#CCC(N)C(=O)OC.CC(C)(C)OC(=O)OC(=O)OC(C)(C)C>>C#CCC(NC(=O)OC(C)(C)C)C(=O)OC'
p3830
(dp3831
g1098
I1
sS'C#CCC(N)C(=O)OC'
p3832
I-1
sS'CC(C)(C)OC(=O)OC(=O)OC(C)(C)C'
p3833
I-1
ssS'CC(C)COC(=O)Cl.Cn1cc(CC(NC(=O)OC(C)(C)C)C(=O)O)c2ccccc21>>Cn1cc(CC(NC(=O)OC(C)(C)C)C(N)=O)c2ccccc21'
p3834
(dp3835
S'CC(C)COC(=O)Cl'
p3836
I-1
sS'Cn1cc(CC(NC(=O)OC(C)(C)C)C(=O)O)c2ccccc21'
p3837
I-1
sg1594
I1
ssS'CC(C)(C)OC(=O)C(N)Cc1c[nH]c2ccccc12.CC(C)(C)OC(=O)OC(=O)OC(C)(C)C>>CC(C)(C)OC(=O)NC(Cc1c[nH]c2ccccc12)C(=O)OC(C)(C)C'
p3838
(dp3839
S'CC(C)(C)OC(=O)C(N)Cc1c[nH]c2ccccc12'
p3840
I-1
sg2427
I1
sS'CC(C)(C)OC(=O)OC(=O)OC(C)(C)C'
p3841
I-1
ssS'CC(C)(C)OC(=O)OC(=O)OC(C)(C)C.NC(N)=S>>CC(C)(C)OC(=O)NC(=S)NC(=O)OC(C)(C)C'
p3842
(dp3843
S'CC(C)(C)OC(=O)NC(=S)NC(=O)OC(C)(C)C'
p3844
I1
sS'CC(C)(C)OC(=O)OC(=O)OC(C)(C)C'
p3845
I-1
sS'NC(N)=S'
p3846
I-1
ssS'O=C(O)c1ccccc1C(=O)NCCCCCCl>>O=C1c2ccccc2C(=O)N1CCCCCCl'
p3847
(dp3848
g1934
I-1
sg1712
I1
ssS'CCOC(=O)CNC(=O)NC>>CN1C(=O)CNC1=O'
p3849
(dp3850
g2776
I-1
sg990
I1
ssS'CC(=O)Cl.O=C(O)c1c(C(O)Cc2cccnc2)[nH]c2ccc(OC(F)(F)F)cc12>>CC(=O)OC(Cc1cccnc1)c1[nH]c2ccc(OC(F)(F)F)cc2c1C(=O)O'
p3851
(dp3852
S'O=C(O)c1c(C(O)Cc2cccnc2)[nH]c2ccc(OC(F)(F)F)cc12'
p3853
I-1
sg2056
I1
sS'CC(=O)Cl'
p3854
I-1
ssS'O=[N+]([O-])c1ccc(OC(F)(F)F)cc1/C=C/N1CCCC1>>FC(F)(F)Oc1ccc2[nH]ccc2c1'
p3855
(dp3856
g1197
I1
sg696
I-1
ssS'CO.O=C(O)Cc1cc2ccccc2[nH]1>>COC(=O)Cc1cc2ccccc2[nH]1'
p3857
(dp3858
g2584
I1
sS'CO'
p3859
I-1
sS'O=C(O)Cc1cc2ccccc2[nH]1'
p3860
I-1
ssS'C#CC[C@H](NC(=O)OC(C)(C)C)C(=O)O.OCc1ccccc1>>C#CC[C@H](NC(=O)OC(C)(C)C)C(=O)OCc1ccccc1'
p3861
(dp3862
S'OCc1ccccc1'
p3863
I-1
sg3755
I1
sS'C#CC[C@H](NC(=O)OC(C)(C)C)C(=O)O'
p3864
I-1
ssS'CC(C)(C)OC(=O)NCCCCCN1C(=O)c2ccccc2C1=O>>NCCCCCN1C(=O)c2ccccc2C1=O'
p3865
(dp3866
g217
I-1
sg3536
I1
ss.